EXPORTS
    _ZN12ZCom_Address10setAddressE17eZCom_AddressTypehPKc @1
    _ZN12ZCom_Address12setControlIDEh @2
    _ZN12ZCom_Address13checkHostnameEv @3
    _ZN12ZCom_Address15resolveHostnameEbj @4
    _ZN12ZCom_Address5setIPEhhhh @5
    _ZN12ZCom_Address5setIPEj @6
    _ZN12ZCom_Address7setPortEt @7
    _ZN12ZCom_Address7setTypeE17eZCom_AddressType @8
    _ZN12ZCom_AddressC1ERKS_ @9
    _ZN12ZCom_AddressC1Ev @10
    _ZN12ZCom_AddressC2ERKS_ @11
    _ZN12ZCom_AddressC2Ev @12
    _ZN12ZCom_AddressD1Ev @13
    _ZN12ZCom_AddressD2Ev @14
    _ZN12ZCom_AddressaSERKS_ @15
    _ZN12ZCom_Control12ZCom_ConnectERK12ZCom_AddressP14ZCom_BitStream @16
    _ZN12ZCom_Control13ZCom_DiscoverERK12ZCom_AddressP14ZCom_BitStream @17
    _ZN12ZCom_Control13ZCom_sendDataEjP14ZCom_BitStream14eZCom_SendMode @18
    _ZN12ZCom_Control15ZCom_DisconnectEjP14ZCom_BitStream @19
    _ZN12ZCom_Control16ZCom_initSocketsEbtth @20
    _ZN12ZCom_Control16ZCom_sendDataRawER12ZCom_AddressPvj @21
    _ZN12ZCom_Control16ZCom_setUserDataEjPv @22
    _ZN12ZCom_Control16ZCom_simulateLagEjj @23
    _ZN12ZCom_Control17ZCom_processInputE15eZCom_BlockMode @24
    _ZN12ZCom_Control17ZCom_setControlIDEh @25
    _ZN12ZCom_Control17ZCom_setDebugNameEPKc @26
    _ZN12ZCom_Control17ZCom_simulateLossEjf @27
    _ZN12ZCom_Control18ZCom_disconnectAllEP14ZCom_BitStream @28
    _ZN12ZCom_Control18ZCom_processOutputEv @29
    _ZN12ZCom_Control18ZCom_registerClassEPKcj @30
    _ZN12ZCom_Control19ZCom_getCurrentTimeEv @31
    _ZN12ZCom_Control20ZCom_createBitStreamEv @32
    _ZN12ZCom_Control20ZCom_deleteBitStreamEP14ZCom_BitStream @33
    _ZN12ZCom_Control20ZCom_getGroupManagerEv @34
    _ZN12ZCom_Control20ZCom_requestZoidModeEjh @35
    _ZN12ZCom_Control20ZCom_sendDataToGroupEjP14ZCom_BitStream14eZCom_SendMode @36
    _ZN12ZCom_Control21ZCom_setUpstreamLimitEjj @37
    _ZN12ZCom_Control23ZCom_processReplicatorsEj @38
    _ZN12ZCom_Control24ZCom_setDiscoverListenerE17eZCom_DiscoverOptt @39
    _ZN12ZCom_Control27ZCom_requestDownstreamLimitEjtt @40
    _ZN12ZCom_Control8ShutdownEv @41
    _ZN12ZCom_ControlC1Ev @42
    _ZN12ZCom_ControlC2Ev @43
    _ZN12ZCom_ControlD0Ev @44
    _ZN12ZCom_ControlD1Ev @45
    _ZN12ZCom_ControlD2Ev @46
    _ZN14ZCom_BitStream10addStringWEPKw @47
    _ZN14ZCom_BitStream10getStringWEPwt @48
    _ZN14ZCom_BitStream10skipBufferEt @49
    _ZN14ZCom_BitStream10skipStringEv @50
    _ZN14ZCom_BitStream11DeserializeEPct @51
    _ZN14ZCom_BitStream11getSizeHintEv @52
    _ZN14ZCom_BitStream12addBitStreamEPS_b @53
    _ZN14ZCom_BitStream12addSignedIntEih @54
    _ZN14ZCom_BitStream12getBitStreamEjb @55
    _ZN14ZCom_BitStream12getBufferMaxEv @56
    _ZN14ZCom_BitStream12getSignedIntEh @57
    _ZN14ZCom_BitStream12logReadStateEv @58
    _ZN14ZCom_BitStream13getStringSizeEv @59
    _ZN14ZCom_BitStream13logWriteStateEv @60
    _ZN14ZCom_BitStream13skipSignedIntEh @61
    _ZN14ZCom_BitStream15getStringLengthEv @62
    _ZN14ZCom_BitStream15getStringStaticEv @63
    _ZN14ZCom_BitStream16getStringWLengthEv @64
    _ZN14ZCom_BitStream16getStringWStaticEv @65
    _ZN14ZCom_BitStream5ClearEv @66
    _ZN14ZCom_BitStream6addIntEjh @67
    _ZN14ZCom_BitStream6getIntEh @68
    _ZN14ZCom_BitStream7addBoolEb @69
    _ZN14ZCom_BitStream7getBoolEv @70
    _ZN14ZCom_BitStream7skipIntEh @71
    _ZN14ZCom_BitStream8addFloatEfh @72
    _ZN14ZCom_BitStream8getFloatEh @73
    _ZN14ZCom_BitStream8skipBitsEj @74
    _ZN14ZCom_BitStream8skipBoolEv @75
    _ZN14ZCom_BitStream9SerializeEPcPtt @76
    _ZN14ZCom_BitStream9addBufferEPct @77
    _ZN14ZCom_BitStream9addStringEPKc @78
    _ZN14ZCom_BitStream9getBufferEPct @79
    _ZN14ZCom_BitStream9getStringEPct @80
    _ZN14ZCom_BitStream9getStringEv @81
    _ZN14ZCom_BitStream9skipFloatEh @82
    _ZN14ZCom_BitStreamC1ERKS_ @83
    _ZN14ZCom_BitStreamC1Et @84
    _ZN14ZCom_BitStreamC2ERKS_ @85
    _ZN14ZCom_BitStreamC2Et @86
    _ZN14ZCom_BitStreamD1Ev @87
    _ZN14ZCom_BitStreamD2Ev @88
    _ZN14ZCom_BitStreamaSERKS_ @89
    _ZN14ZCom_BitStreamdlEPv @90
    _ZN14ZCom_BitStreamnwEj @91
    _ZN15ZCom_Replicator13peekDataStoreEPv @92
    _ZN15ZCom_Replicator16peekDataRetrieveEv @93
    _ZN15ZCom_ReplicatorC1EP20ZCom_ReplicatorSetup @94
    _ZN15ZCom_ReplicatorC2EP20ZCom_ReplicatorSetup @95
    _ZN15ZCom_ReplicatorD0Ev @96
    _ZN15ZCom_ReplicatorD1Ev @97
    _ZN15ZCom_ReplicatorD2Ev @98
    _ZN15ZCom_ReplicatordlEPv @99
    _ZN15ZCom_ReplicatornwEj @100
    _ZN16ZCom_InterpolateIPfLi10EE10checkStateEv @101
    _ZN16ZCom_InterpolateIPfLi10EE10unpackDataEP14ZCom_BitStreambj @102
    _ZN16ZCom_InterpolateIPfLi10EE12getRecValPtrEh @103
    _ZN16ZCom_InterpolateIPfLi10EE13clearPeekDataEv @104
    _ZN16ZCom_InterpolateIPfLi10EE7ProcessE14eZCom_NodeRolej @105
    _ZN16ZCom_InterpolateIPfLi10EE8getValueEh @106
    _ZN16ZCom_InterpolateIPfLi10EE8packDataEP14ZCom_BitStream @107
    _ZN16ZCom_InterpolateIPfLi10EE8peekDataEv @108
    _ZN16ZCom_InterpolateIPfLi10EE8setValueES0_ @109
    _ZN16ZCom_InterpolateIPfLi10EE8setValueEhf @110
    _ZN16ZCom_InterpolateIPfLi10EE9setRecValEhf @111
    _ZN16ZCom_InterpolateIPfLi10EEC1ES0_P22ZCom_RSetupInterpolateIfE @112
    _ZN16ZCom_InterpolateIPfLi10EEC1ES0_hhhfS0_hssf @113
    _ZN16ZCom_InterpolateIPfLi10EEC2ES0_P22ZCom_RSetupInterpolateIfE @114
    _ZN16ZCom_InterpolateIPfLi10EEC2ES0_hhhfS0_hssf @115
    _ZN16ZCom_InterpolateIPfLi10EED0Ev @116
    _ZN16ZCom_InterpolateIPfLi10EED1Ev @117
    _ZN16ZCom_InterpolateIPfLi10EED2Ev @118
    _ZN16ZCom_InterpolateIPfLi11EE10checkStateEv @119
    _ZN16ZCom_InterpolateIPfLi11EE10unpackDataEP14ZCom_BitStreambj @120
    _ZN16ZCom_InterpolateIPfLi11EE12getRecValPtrEh @121
    _ZN16ZCom_InterpolateIPfLi11EE13clearPeekDataEv @122
    _ZN16ZCom_InterpolateIPfLi11EE7ProcessE14eZCom_NodeRolej @123
    _ZN16ZCom_InterpolateIPfLi11EE8getValueEh @124
    _ZN16ZCom_InterpolateIPfLi11EE8packDataEP14ZCom_BitStream @125
    _ZN16ZCom_InterpolateIPfLi11EE8peekDataEv @126
    _ZN16ZCom_InterpolateIPfLi11EE8setValueES0_ @127
    _ZN16ZCom_InterpolateIPfLi11EE8setValueEhf @128
    _ZN16ZCom_InterpolateIPfLi11EE9setRecValEhf @129
    _ZN16ZCom_InterpolateIPfLi11EEC1ES0_P22ZCom_RSetupInterpolateIfE @130
    _ZN16ZCom_InterpolateIPfLi11EEC1ES0_hhhfS0_hssf @131
    _ZN16ZCom_InterpolateIPfLi11EEC2ES0_P22ZCom_RSetupInterpolateIfE @132
    _ZN16ZCom_InterpolateIPfLi11EEC2ES0_hhhfS0_hssf @133
    _ZN16ZCom_InterpolateIPfLi11EED0Ev @134
    _ZN16ZCom_InterpolateIPfLi11EED1Ev @135
    _ZN16ZCom_InterpolateIPfLi11EED2Ev @136
    _ZN16ZCom_InterpolateIPfLi12EE10checkStateEv @137
    _ZN16ZCom_InterpolateIPfLi12EE10unpackDataEP14ZCom_BitStreambj @138
    _ZN16ZCom_InterpolateIPfLi12EE12getRecValPtrEh @139
    _ZN16ZCom_InterpolateIPfLi12EE13clearPeekDataEv @140
    _ZN16ZCom_InterpolateIPfLi12EE7ProcessE14eZCom_NodeRolej @141
    _ZN16ZCom_InterpolateIPfLi12EE8getValueEh @142
    _ZN16ZCom_InterpolateIPfLi12EE8packDataEP14ZCom_BitStream @143
    _ZN16ZCom_InterpolateIPfLi12EE8peekDataEv @144
    _ZN16ZCom_InterpolateIPfLi12EE8setValueES0_ @145
    _ZN16ZCom_InterpolateIPfLi12EE8setValueEhf @146
    _ZN16ZCom_InterpolateIPfLi12EE9setRecValEhf @147
    _ZN16ZCom_InterpolateIPfLi12EEC1ES0_P22ZCom_RSetupInterpolateIfE @148
    _ZN16ZCom_InterpolateIPfLi12EEC1ES0_hhhfS0_hssf @149
    _ZN16ZCom_InterpolateIPfLi12EEC2ES0_P22ZCom_RSetupInterpolateIfE @150
    _ZN16ZCom_InterpolateIPfLi12EEC2ES0_hhhfS0_hssf @151
    _ZN16ZCom_InterpolateIPfLi12EED0Ev @152
    _ZN16ZCom_InterpolateIPfLi12EED1Ev @153
    _ZN16ZCom_InterpolateIPfLi12EED2Ev @154
    _ZN16ZCom_InterpolateIPfLi1EE10checkStateEv @155
    _ZN16ZCom_InterpolateIPfLi1EE10unpackDataEP14ZCom_BitStreambj @156
    _ZN16ZCom_InterpolateIPfLi1EE12getRecValPtrEh @157
    _ZN16ZCom_InterpolateIPfLi1EE13clearPeekDataEv @158
    _ZN16ZCom_InterpolateIPfLi1EE7ProcessE14eZCom_NodeRolej @159
    _ZN16ZCom_InterpolateIPfLi1EE8getValueEh @160
    _ZN16ZCom_InterpolateIPfLi1EE8packDataEP14ZCom_BitStream @161
    _ZN16ZCom_InterpolateIPfLi1EE8peekDataEv @162
    _ZN16ZCom_InterpolateIPfLi1EE8setValueES0_ @163
    _ZN16ZCom_InterpolateIPfLi1EE8setValueEhf @164
    _ZN16ZCom_InterpolateIPfLi1EE9setRecValEhf @165
    _ZN16ZCom_InterpolateIPfLi1EEC1ES0_P22ZCom_RSetupInterpolateIfE @166
    _ZN16ZCom_InterpolateIPfLi1EEC1ES0_hhhfS0_hssf @167
    _ZN16ZCom_InterpolateIPfLi1EEC2ES0_P22ZCom_RSetupInterpolateIfE @168
    _ZN16ZCom_InterpolateIPfLi1EEC2ES0_hhhfS0_hssf @169
    _ZN16ZCom_InterpolateIPfLi1EED0Ev @170
    _ZN16ZCom_InterpolateIPfLi1EED1Ev @171
    _ZN16ZCom_InterpolateIPfLi1EED2Ev @172
    _ZN16ZCom_InterpolateIPfLi2EE10checkStateEv @173
    _ZN16ZCom_InterpolateIPfLi2EE10unpackDataEP14ZCom_BitStreambj @174
    _ZN16ZCom_InterpolateIPfLi2EE12getRecValPtrEh @175
    _ZN16ZCom_InterpolateIPfLi2EE13clearPeekDataEv @176
    _ZN16ZCom_InterpolateIPfLi2EE7ProcessE14eZCom_NodeRolej @177
    _ZN16ZCom_InterpolateIPfLi2EE8getValueEh @178
    _ZN16ZCom_InterpolateIPfLi2EE8packDataEP14ZCom_BitStream @179
    _ZN16ZCom_InterpolateIPfLi2EE8peekDataEv @180
    _ZN16ZCom_InterpolateIPfLi2EE8setValueES0_ @181
    _ZN16ZCom_InterpolateIPfLi2EE8setValueEhf @182
    _ZN16ZCom_InterpolateIPfLi2EE9setRecValEhf @183
    _ZN16ZCom_InterpolateIPfLi2EEC1ES0_P22ZCom_RSetupInterpolateIfE @184
    _ZN16ZCom_InterpolateIPfLi2EEC1ES0_hhhfS0_hssf @185
    _ZN16ZCom_InterpolateIPfLi2EEC2ES0_P22ZCom_RSetupInterpolateIfE @186
    _ZN16ZCom_InterpolateIPfLi2EEC2ES0_hhhfS0_hssf @187
    _ZN16ZCom_InterpolateIPfLi2EED0Ev @188
    _ZN16ZCom_InterpolateIPfLi2EED1Ev @189
    _ZN16ZCom_InterpolateIPfLi2EED2Ev @190
    _ZN16ZCom_InterpolateIPfLi3EE10checkStateEv @191
    _ZN16ZCom_InterpolateIPfLi3EE10unpackDataEP14ZCom_BitStreambj @192
    _ZN16ZCom_InterpolateIPfLi3EE12getRecValPtrEh @193
    _ZN16ZCom_InterpolateIPfLi3EE13clearPeekDataEv @194
    _ZN16ZCom_InterpolateIPfLi3EE7ProcessE14eZCom_NodeRolej @195
    _ZN16ZCom_InterpolateIPfLi3EE8getValueEh @196
    _ZN16ZCom_InterpolateIPfLi3EE8packDataEP14ZCom_BitStream @197
    _ZN16ZCom_InterpolateIPfLi3EE8peekDataEv @198
    _ZN16ZCom_InterpolateIPfLi3EE8setValueES0_ @199
    _ZN16ZCom_InterpolateIPfLi3EE8setValueEhf @200
    _ZN16ZCom_InterpolateIPfLi3EE9setRecValEhf @201
    _ZN16ZCom_InterpolateIPfLi3EEC1ES0_P22ZCom_RSetupInterpolateIfE @202
    _ZN16ZCom_InterpolateIPfLi3EEC1ES0_hhhfS0_hssf @203
    _ZN16ZCom_InterpolateIPfLi3EEC2ES0_P22ZCom_RSetupInterpolateIfE @204
    _ZN16ZCom_InterpolateIPfLi3EEC2ES0_hhhfS0_hssf @205
    _ZN16ZCom_InterpolateIPfLi3EED0Ev @206
    _ZN16ZCom_InterpolateIPfLi3EED1Ev @207
    _ZN16ZCom_InterpolateIPfLi3EED2Ev @208
    _ZN16ZCom_InterpolateIPfLi4EE10checkStateEv @209
    _ZN16ZCom_InterpolateIPfLi4EE10unpackDataEP14ZCom_BitStreambj @210
    _ZN16ZCom_InterpolateIPfLi4EE12getRecValPtrEh @211
    _ZN16ZCom_InterpolateIPfLi4EE13clearPeekDataEv @212
    _ZN16ZCom_InterpolateIPfLi4EE7ProcessE14eZCom_NodeRolej @213
    _ZN16ZCom_InterpolateIPfLi4EE8getValueEh @214
    _ZN16ZCom_InterpolateIPfLi4EE8packDataEP14ZCom_BitStream @215
    _ZN16ZCom_InterpolateIPfLi4EE8peekDataEv @216
    _ZN16ZCom_InterpolateIPfLi4EE8setValueES0_ @217
    _ZN16ZCom_InterpolateIPfLi4EE8setValueEhf @218
    _ZN16ZCom_InterpolateIPfLi4EE9setRecValEhf @219
    _ZN16ZCom_InterpolateIPfLi4EEC1ES0_P22ZCom_RSetupInterpolateIfE @220
    _ZN16ZCom_InterpolateIPfLi4EEC1ES0_hhhfS0_hssf @221
    _ZN16ZCom_InterpolateIPfLi4EEC2ES0_P22ZCom_RSetupInterpolateIfE @222
    _ZN16ZCom_InterpolateIPfLi4EEC2ES0_hhhfS0_hssf @223
    _ZN16ZCom_InterpolateIPfLi4EED0Ev @224
    _ZN16ZCom_InterpolateIPfLi4EED1Ev @225
    _ZN16ZCom_InterpolateIPfLi4EED2Ev @226
    _ZN16ZCom_InterpolateIPfLi5EE10checkStateEv @227
    _ZN16ZCom_InterpolateIPfLi5EE10unpackDataEP14ZCom_BitStreambj @228
    _ZN16ZCom_InterpolateIPfLi5EE12getRecValPtrEh @229
    _ZN16ZCom_InterpolateIPfLi5EE13clearPeekDataEv @230
    _ZN16ZCom_InterpolateIPfLi5EE7ProcessE14eZCom_NodeRolej @231
    _ZN16ZCom_InterpolateIPfLi5EE8getValueEh @232
    _ZN16ZCom_InterpolateIPfLi5EE8packDataEP14ZCom_BitStream @233
    _ZN16ZCom_InterpolateIPfLi5EE8peekDataEv @234
    _ZN16ZCom_InterpolateIPfLi5EE8setValueES0_ @235
    _ZN16ZCom_InterpolateIPfLi5EE8setValueEhf @236
    _ZN16ZCom_InterpolateIPfLi5EE9setRecValEhf @237
    _ZN16ZCom_InterpolateIPfLi5EEC1ES0_P22ZCom_RSetupInterpolateIfE @238
    _ZN16ZCom_InterpolateIPfLi5EEC1ES0_hhhfS0_hssf @239
    _ZN16ZCom_InterpolateIPfLi5EEC2ES0_P22ZCom_RSetupInterpolateIfE @240
    _ZN16ZCom_InterpolateIPfLi5EEC2ES0_hhhfS0_hssf @241
    _ZN16ZCom_InterpolateIPfLi5EED0Ev @242
    _ZN16ZCom_InterpolateIPfLi5EED1Ev @243
    _ZN16ZCom_InterpolateIPfLi5EED2Ev @244
    _ZN16ZCom_InterpolateIPfLi6EE10checkStateEv @245
    _ZN16ZCom_InterpolateIPfLi6EE10unpackDataEP14ZCom_BitStreambj @246
    _ZN16ZCom_InterpolateIPfLi6EE12getRecValPtrEh @247
    _ZN16ZCom_InterpolateIPfLi6EE13clearPeekDataEv @248
    _ZN16ZCom_InterpolateIPfLi6EE7ProcessE14eZCom_NodeRolej @249
    _ZN16ZCom_InterpolateIPfLi6EE8getValueEh @250
    _ZN16ZCom_InterpolateIPfLi6EE8packDataEP14ZCom_BitStream @251
    _ZN16ZCom_InterpolateIPfLi6EE8peekDataEv @252
    _ZN16ZCom_InterpolateIPfLi6EE8setValueES0_ @253
    _ZN16ZCom_InterpolateIPfLi6EE8setValueEhf @254
    _ZN16ZCom_InterpolateIPfLi6EE9setRecValEhf @255
    _ZN16ZCom_InterpolateIPfLi6EEC1ES0_P22ZCom_RSetupInterpolateIfE @256
    _ZN16ZCom_InterpolateIPfLi6EEC1ES0_hhhfS0_hssf @257
    _ZN16ZCom_InterpolateIPfLi6EEC2ES0_P22ZCom_RSetupInterpolateIfE @258
    _ZN16ZCom_InterpolateIPfLi6EEC2ES0_hhhfS0_hssf @259
    _ZN16ZCom_InterpolateIPfLi6EED0Ev @260
    _ZN16ZCom_InterpolateIPfLi6EED1Ev @261
    _ZN16ZCom_InterpolateIPfLi6EED2Ev @262
    _ZN16ZCom_InterpolateIPfLi7EE10checkStateEv @263
    _ZN16ZCom_InterpolateIPfLi7EE10unpackDataEP14ZCom_BitStreambj @264
    _ZN16ZCom_InterpolateIPfLi7EE12getRecValPtrEh @265
    _ZN16ZCom_InterpolateIPfLi7EE13clearPeekDataEv @266
    _ZN16ZCom_InterpolateIPfLi7EE7ProcessE14eZCom_NodeRolej @267
    _ZN16ZCom_InterpolateIPfLi7EE8getValueEh @268
    _ZN16ZCom_InterpolateIPfLi7EE8packDataEP14ZCom_BitStream @269
    _ZN16ZCom_InterpolateIPfLi7EE8peekDataEv @270
    _ZN16ZCom_InterpolateIPfLi7EE8setValueES0_ @271
    _ZN16ZCom_InterpolateIPfLi7EE8setValueEhf @272
    _ZN16ZCom_InterpolateIPfLi7EE9setRecValEhf @273
    _ZN16ZCom_InterpolateIPfLi7EEC1ES0_P22ZCom_RSetupInterpolateIfE @274
    _ZN16ZCom_InterpolateIPfLi7EEC1ES0_hhhfS0_hssf @275
    _ZN16ZCom_InterpolateIPfLi7EEC2ES0_P22ZCom_RSetupInterpolateIfE @276
    _ZN16ZCom_InterpolateIPfLi7EEC2ES0_hhhfS0_hssf @277
    _ZN16ZCom_InterpolateIPfLi7EED0Ev @278
    _ZN16ZCom_InterpolateIPfLi7EED1Ev @279
    _ZN16ZCom_InterpolateIPfLi7EED2Ev @280
    _ZN16ZCom_InterpolateIPfLi8EE10checkStateEv @281
    _ZN16ZCom_InterpolateIPfLi8EE10unpackDataEP14ZCom_BitStreambj @282
    _ZN16ZCom_InterpolateIPfLi8EE12getRecValPtrEh @283
    _ZN16ZCom_InterpolateIPfLi8EE13clearPeekDataEv @284
    _ZN16ZCom_InterpolateIPfLi8EE7ProcessE14eZCom_NodeRolej @285
    _ZN16ZCom_InterpolateIPfLi8EE8getValueEh @286
    _ZN16ZCom_InterpolateIPfLi8EE8packDataEP14ZCom_BitStream @287
    _ZN16ZCom_InterpolateIPfLi8EE8peekDataEv @288
    _ZN16ZCom_InterpolateIPfLi8EE8setValueES0_ @289
    _ZN16ZCom_InterpolateIPfLi8EE8setValueEhf @290
    _ZN16ZCom_InterpolateIPfLi8EE9setRecValEhf @291
    _ZN16ZCom_InterpolateIPfLi8EEC1ES0_P22ZCom_RSetupInterpolateIfE @292
    _ZN16ZCom_InterpolateIPfLi8EEC1ES0_hhhfS0_hssf @293
    _ZN16ZCom_InterpolateIPfLi8EEC2ES0_P22ZCom_RSetupInterpolateIfE @294
    _ZN16ZCom_InterpolateIPfLi8EEC2ES0_hhhfS0_hssf @295
    _ZN16ZCom_InterpolateIPfLi8EED0Ev @296
    _ZN16ZCom_InterpolateIPfLi8EED1Ev @297
    _ZN16ZCom_InterpolateIPfLi8EED2Ev @298
    _ZN16ZCom_InterpolateIPfLi9EE10checkStateEv @299
    _ZN16ZCom_InterpolateIPfLi9EE10unpackDataEP14ZCom_BitStreambj @300
    _ZN16ZCom_InterpolateIPfLi9EE12getRecValPtrEh @301
    _ZN16ZCom_InterpolateIPfLi9EE13clearPeekDataEv @302
    _ZN16ZCom_InterpolateIPfLi9EE7ProcessE14eZCom_NodeRolej @303
    _ZN16ZCom_InterpolateIPfLi9EE8getValueEh @304
    _ZN16ZCom_InterpolateIPfLi9EE8packDataEP14ZCom_BitStream @305
    _ZN16ZCom_InterpolateIPfLi9EE8peekDataEv @306
    _ZN16ZCom_InterpolateIPfLi9EE8setValueES0_ @307
    _ZN16ZCom_InterpolateIPfLi9EE8setValueEhf @308
    _ZN16ZCom_InterpolateIPfLi9EE9setRecValEhf @309
    _ZN16ZCom_InterpolateIPfLi9EEC1ES0_P22ZCom_RSetupInterpolateIfE @310
    _ZN16ZCom_InterpolateIPfLi9EEC1ES0_hhhfS0_hssf @311
    _ZN16ZCom_InterpolateIPfLi9EEC2ES0_P22ZCom_RSetupInterpolateIfE @312
    _ZN16ZCom_InterpolateIPfLi9EEC2ES0_hhhfS0_hssf @313
    _ZN16ZCom_InterpolateIPfLi9EED0Ev @314
    _ZN16ZCom_InterpolateIPfLi9EED1Ev @315
    _ZN16ZCom_InterpolateIPfLi9EED2Ev @316
    _ZN16ZCom_InterpolateIPiLi10EE10checkStateEv @317
    _ZN16ZCom_InterpolateIPiLi10EE10unpackDataEP14ZCom_BitStreambj @318
    _ZN16ZCom_InterpolateIPiLi10EE12getRecValPtrEh @319
    _ZN16ZCom_InterpolateIPiLi10EE13clearPeekDataEv @320
    _ZN16ZCom_InterpolateIPiLi10EE7ProcessE14eZCom_NodeRolej @321
    _ZN16ZCom_InterpolateIPiLi10EE8getValueEh @322
    _ZN16ZCom_InterpolateIPiLi10EE8packDataEP14ZCom_BitStream @323
    _ZN16ZCom_InterpolateIPiLi10EE8peekDataEv @324
    _ZN16ZCom_InterpolateIPiLi10EE8setValueES0_ @325
    _ZN16ZCom_InterpolateIPiLi10EE8setValueEhi @326
    _ZN16ZCom_InterpolateIPiLi10EE9setRecValEhi @327
    _ZN16ZCom_InterpolateIPiLi10EEC1ES0_P22ZCom_RSetupInterpolateIiE @328
    _ZN16ZCom_InterpolateIPiLi10EEC1ES0_hhhiS0_hssf @329
    _ZN16ZCom_InterpolateIPiLi10EEC2ES0_P22ZCom_RSetupInterpolateIiE @330
    _ZN16ZCom_InterpolateIPiLi10EEC2ES0_hhhiS0_hssf @331
    _ZN16ZCom_InterpolateIPiLi10EED0Ev @332
    _ZN16ZCom_InterpolateIPiLi10EED1Ev @333
    _ZN16ZCom_InterpolateIPiLi10EED2Ev @334
    _ZN16ZCom_InterpolateIPiLi11EE10checkStateEv @335
    _ZN16ZCom_InterpolateIPiLi11EE10unpackDataEP14ZCom_BitStreambj @336
    _ZN16ZCom_InterpolateIPiLi11EE12getRecValPtrEh @337
    _ZN16ZCom_InterpolateIPiLi11EE13clearPeekDataEv @338
    _ZN16ZCom_InterpolateIPiLi11EE7ProcessE14eZCom_NodeRolej @339
    _ZN16ZCom_InterpolateIPiLi11EE8getValueEh @340
    _ZN16ZCom_InterpolateIPiLi11EE8packDataEP14ZCom_BitStream @341
    _ZN16ZCom_InterpolateIPiLi11EE8peekDataEv @342
    _ZN16ZCom_InterpolateIPiLi11EE8setValueES0_ @343
    _ZN16ZCom_InterpolateIPiLi11EE8setValueEhi @344
    _ZN16ZCom_InterpolateIPiLi11EE9setRecValEhi @345
    _ZN16ZCom_InterpolateIPiLi11EEC1ES0_P22ZCom_RSetupInterpolateIiE @346
    _ZN16ZCom_InterpolateIPiLi11EEC1ES0_hhhiS0_hssf @347
    _ZN16ZCom_InterpolateIPiLi11EEC2ES0_P22ZCom_RSetupInterpolateIiE @348
    _ZN16ZCom_InterpolateIPiLi11EEC2ES0_hhhiS0_hssf @349
    _ZN16ZCom_InterpolateIPiLi11EED0Ev @350
    _ZN16ZCom_InterpolateIPiLi11EED1Ev @351
    _ZN16ZCom_InterpolateIPiLi11EED2Ev @352
    _ZN16ZCom_InterpolateIPiLi12EE10checkStateEv @353
    _ZN16ZCom_InterpolateIPiLi12EE10unpackDataEP14ZCom_BitStreambj @354
    _ZN16ZCom_InterpolateIPiLi12EE12getRecValPtrEh @355
    _ZN16ZCom_InterpolateIPiLi12EE13clearPeekDataEv @356
    _ZN16ZCom_InterpolateIPiLi12EE7ProcessE14eZCom_NodeRolej @357
    _ZN16ZCom_InterpolateIPiLi12EE8getValueEh @358
    _ZN16ZCom_InterpolateIPiLi12EE8packDataEP14ZCom_BitStream @359
    _ZN16ZCom_InterpolateIPiLi12EE8peekDataEv @360
    _ZN16ZCom_InterpolateIPiLi12EE8setValueES0_ @361
    _ZN16ZCom_InterpolateIPiLi12EE8setValueEhi @362
    _ZN16ZCom_InterpolateIPiLi12EE9setRecValEhi @363
    _ZN16ZCom_InterpolateIPiLi12EEC1ES0_P22ZCom_RSetupInterpolateIiE @364
    _ZN16ZCom_InterpolateIPiLi12EEC1ES0_hhhiS0_hssf @365
    _ZN16ZCom_InterpolateIPiLi12EEC2ES0_P22ZCom_RSetupInterpolateIiE @366
    _ZN16ZCom_InterpolateIPiLi12EEC2ES0_hhhiS0_hssf @367
    _ZN16ZCom_InterpolateIPiLi12EED0Ev @368
    _ZN16ZCom_InterpolateIPiLi12EED1Ev @369
    _ZN16ZCom_InterpolateIPiLi12EED2Ev @370
    _ZN16ZCom_InterpolateIPiLi1EE10checkStateEv @371
    _ZN16ZCom_InterpolateIPiLi1EE10unpackDataEP14ZCom_BitStreambj @372
    _ZN16ZCom_InterpolateIPiLi1EE12getRecValPtrEh @373
    _ZN16ZCom_InterpolateIPiLi1EE13clearPeekDataEv @374
    _ZN16ZCom_InterpolateIPiLi1EE7ProcessE14eZCom_NodeRolej @375
    _ZN16ZCom_InterpolateIPiLi1EE8getValueEh @376
    _ZN16ZCom_InterpolateIPiLi1EE8packDataEP14ZCom_BitStream @377
    _ZN16ZCom_InterpolateIPiLi1EE8peekDataEv @378
    _ZN16ZCom_InterpolateIPiLi1EE8setValueES0_ @379
    _ZN16ZCom_InterpolateIPiLi1EE8setValueEhi @380
    _ZN16ZCom_InterpolateIPiLi1EE9setRecValEhi @381
    _ZN16ZCom_InterpolateIPiLi1EEC1ES0_P22ZCom_RSetupInterpolateIiE @382
    _ZN16ZCom_InterpolateIPiLi1EEC1ES0_hhhiS0_hssf @383
    _ZN16ZCom_InterpolateIPiLi1EEC2ES0_P22ZCom_RSetupInterpolateIiE @384
    _ZN16ZCom_InterpolateIPiLi1EEC2ES0_hhhiS0_hssf @385
    _ZN16ZCom_InterpolateIPiLi1EED0Ev @386
    _ZN16ZCom_InterpolateIPiLi1EED1Ev @387
    _ZN16ZCom_InterpolateIPiLi1EED2Ev @388
    _ZN16ZCom_InterpolateIPiLi2EE10checkStateEv @389
    _ZN16ZCom_InterpolateIPiLi2EE10unpackDataEP14ZCom_BitStreambj @390
    _ZN16ZCom_InterpolateIPiLi2EE12getRecValPtrEh @391
    _ZN16ZCom_InterpolateIPiLi2EE13clearPeekDataEv @392
    _ZN16ZCom_InterpolateIPiLi2EE7ProcessE14eZCom_NodeRolej @393
    _ZN16ZCom_InterpolateIPiLi2EE8getValueEh @394
    _ZN16ZCom_InterpolateIPiLi2EE8packDataEP14ZCom_BitStream @395
    _ZN16ZCom_InterpolateIPiLi2EE8peekDataEv @396
    _ZN16ZCom_InterpolateIPiLi2EE8setValueES0_ @397
    _ZN16ZCom_InterpolateIPiLi2EE8setValueEhi @398
    _ZN16ZCom_InterpolateIPiLi2EE9setRecValEhi @399
    _ZN16ZCom_InterpolateIPiLi2EEC1ES0_P22ZCom_RSetupInterpolateIiE @400
    _ZN16ZCom_InterpolateIPiLi2EEC1ES0_hhhiS0_hssf @401
    _ZN16ZCom_InterpolateIPiLi2EEC2ES0_P22ZCom_RSetupInterpolateIiE @402
    _ZN16ZCom_InterpolateIPiLi2EEC2ES0_hhhiS0_hssf @403
    _ZN16ZCom_InterpolateIPiLi2EED0Ev @404
    _ZN16ZCom_InterpolateIPiLi2EED1Ev @405
    _ZN16ZCom_InterpolateIPiLi2EED2Ev @406
    _ZN16ZCom_InterpolateIPiLi3EE10checkStateEv @407
    _ZN16ZCom_InterpolateIPiLi3EE10unpackDataEP14ZCom_BitStreambj @408
    _ZN16ZCom_InterpolateIPiLi3EE12getRecValPtrEh @409
    _ZN16ZCom_InterpolateIPiLi3EE13clearPeekDataEv @410
    _ZN16ZCom_InterpolateIPiLi3EE7ProcessE14eZCom_NodeRolej @411
    _ZN16ZCom_InterpolateIPiLi3EE8getValueEh @412
    _ZN16ZCom_InterpolateIPiLi3EE8packDataEP14ZCom_BitStream @413
    _ZN16ZCom_InterpolateIPiLi3EE8peekDataEv @414
    _ZN16ZCom_InterpolateIPiLi3EE8setValueES0_ @415
    _ZN16ZCom_InterpolateIPiLi3EE8setValueEhi @416
    _ZN16ZCom_InterpolateIPiLi3EE9setRecValEhi @417
    _ZN16ZCom_InterpolateIPiLi3EEC1ES0_P22ZCom_RSetupInterpolateIiE @418
    _ZN16ZCom_InterpolateIPiLi3EEC1ES0_hhhiS0_hssf @419
    _ZN16ZCom_InterpolateIPiLi3EEC2ES0_P22ZCom_RSetupInterpolateIiE @420
    _ZN16ZCom_InterpolateIPiLi3EEC2ES0_hhhiS0_hssf @421
    _ZN16ZCom_InterpolateIPiLi3EED0Ev @422
    _ZN16ZCom_InterpolateIPiLi3EED1Ev @423
    _ZN16ZCom_InterpolateIPiLi3EED2Ev @424
    _ZN16ZCom_InterpolateIPiLi4EE10checkStateEv @425
    _ZN16ZCom_InterpolateIPiLi4EE10unpackDataEP14ZCom_BitStreambj @426
    _ZN16ZCom_InterpolateIPiLi4EE12getRecValPtrEh @427
    _ZN16ZCom_InterpolateIPiLi4EE13clearPeekDataEv @428
    _ZN16ZCom_InterpolateIPiLi4EE7ProcessE14eZCom_NodeRolej @429
    _ZN16ZCom_InterpolateIPiLi4EE8getValueEh @430
    _ZN16ZCom_InterpolateIPiLi4EE8packDataEP14ZCom_BitStream @431
    _ZN16ZCom_InterpolateIPiLi4EE8peekDataEv @432
    _ZN16ZCom_InterpolateIPiLi4EE8setValueES0_ @433
    _ZN16ZCom_InterpolateIPiLi4EE8setValueEhi @434
    _ZN16ZCom_InterpolateIPiLi4EE9setRecValEhi @435
    _ZN16ZCom_InterpolateIPiLi4EEC1ES0_P22ZCom_RSetupInterpolateIiE @436
    _ZN16ZCom_InterpolateIPiLi4EEC1ES0_hhhiS0_hssf @437
    _ZN16ZCom_InterpolateIPiLi4EEC2ES0_P22ZCom_RSetupInterpolateIiE @438
    _ZN16ZCom_InterpolateIPiLi4EEC2ES0_hhhiS0_hssf @439
    _ZN16ZCom_InterpolateIPiLi4EED0Ev @440
    _ZN16ZCom_InterpolateIPiLi4EED1Ev @441
    _ZN16ZCom_InterpolateIPiLi4EED2Ev @442
    _ZN16ZCom_InterpolateIPiLi5EE10checkStateEv @443
    _ZN16ZCom_InterpolateIPiLi5EE10unpackDataEP14ZCom_BitStreambj @444
    _ZN16ZCom_InterpolateIPiLi5EE12getRecValPtrEh @445
    _ZN16ZCom_InterpolateIPiLi5EE13clearPeekDataEv @446
    _ZN16ZCom_InterpolateIPiLi5EE7ProcessE14eZCom_NodeRolej @447
    _ZN16ZCom_InterpolateIPiLi5EE8getValueEh @448
    _ZN16ZCom_InterpolateIPiLi5EE8packDataEP14ZCom_BitStream @449
    _ZN16ZCom_InterpolateIPiLi5EE8peekDataEv @450
    _ZN16ZCom_InterpolateIPiLi5EE8setValueES0_ @451
    _ZN16ZCom_InterpolateIPiLi5EE8setValueEhi @452
    _ZN16ZCom_InterpolateIPiLi5EE9setRecValEhi @453
    _ZN16ZCom_InterpolateIPiLi5EEC1ES0_P22ZCom_RSetupInterpolateIiE @454
    _ZN16ZCom_InterpolateIPiLi5EEC1ES0_hhhiS0_hssf @455
    _ZN16ZCom_InterpolateIPiLi5EEC2ES0_P22ZCom_RSetupInterpolateIiE @456
    _ZN16ZCom_InterpolateIPiLi5EEC2ES0_hhhiS0_hssf @457
    _ZN16ZCom_InterpolateIPiLi5EED0Ev @458
    _ZN16ZCom_InterpolateIPiLi5EED1Ev @459
    _ZN16ZCom_InterpolateIPiLi5EED2Ev @460
    _ZN16ZCom_InterpolateIPiLi6EE10checkStateEv @461
    _ZN16ZCom_InterpolateIPiLi6EE10unpackDataEP14ZCom_BitStreambj @462
    _ZN16ZCom_InterpolateIPiLi6EE12getRecValPtrEh @463
    _ZN16ZCom_InterpolateIPiLi6EE13clearPeekDataEv @464
    _ZN16ZCom_InterpolateIPiLi6EE7ProcessE14eZCom_NodeRolej @465
    _ZN16ZCom_InterpolateIPiLi6EE8getValueEh @466
    _ZN16ZCom_InterpolateIPiLi6EE8packDataEP14ZCom_BitStream @467
    _ZN16ZCom_InterpolateIPiLi6EE8peekDataEv @468
    _ZN16ZCom_InterpolateIPiLi6EE8setValueES0_ @469
    _ZN16ZCom_InterpolateIPiLi6EE8setValueEhi @470
    _ZN16ZCom_InterpolateIPiLi6EE9setRecValEhi @471
    _ZN16ZCom_InterpolateIPiLi6EEC1ES0_P22ZCom_RSetupInterpolateIiE @472
    _ZN16ZCom_InterpolateIPiLi6EEC1ES0_hhhiS0_hssf @473
    _ZN16ZCom_InterpolateIPiLi6EEC2ES0_P22ZCom_RSetupInterpolateIiE @474
    _ZN16ZCom_InterpolateIPiLi6EEC2ES0_hhhiS0_hssf @475
    _ZN16ZCom_InterpolateIPiLi6EED0Ev @476
    _ZN16ZCom_InterpolateIPiLi6EED1Ev @477
    _ZN16ZCom_InterpolateIPiLi6EED2Ev @478
    _ZN16ZCom_InterpolateIPiLi7EE10checkStateEv @479
    _ZN16ZCom_InterpolateIPiLi7EE10unpackDataEP14ZCom_BitStreambj @480
    _ZN16ZCom_InterpolateIPiLi7EE12getRecValPtrEh @481
    _ZN16ZCom_InterpolateIPiLi7EE13clearPeekDataEv @482
    _ZN16ZCom_InterpolateIPiLi7EE7ProcessE14eZCom_NodeRolej @483
    _ZN16ZCom_InterpolateIPiLi7EE8getValueEh @484
    _ZN16ZCom_InterpolateIPiLi7EE8packDataEP14ZCom_BitStream @485
    _ZN16ZCom_InterpolateIPiLi7EE8peekDataEv @486
    _ZN16ZCom_InterpolateIPiLi7EE8setValueES0_ @487
    _ZN16ZCom_InterpolateIPiLi7EE8setValueEhi @488
    _ZN16ZCom_InterpolateIPiLi7EE9setRecValEhi @489
    _ZN16ZCom_InterpolateIPiLi7EEC1ES0_P22ZCom_RSetupInterpolateIiE @490
    _ZN16ZCom_InterpolateIPiLi7EEC1ES0_hhhiS0_hssf @491
    _ZN16ZCom_InterpolateIPiLi7EEC2ES0_P22ZCom_RSetupInterpolateIiE @492
    _ZN16ZCom_InterpolateIPiLi7EEC2ES0_hhhiS0_hssf @493
    _ZN16ZCom_InterpolateIPiLi7EED0Ev @494
    _ZN16ZCom_InterpolateIPiLi7EED1Ev @495
    _ZN16ZCom_InterpolateIPiLi7EED2Ev @496
    _ZN16ZCom_InterpolateIPiLi8EE10checkStateEv @497
    _ZN16ZCom_InterpolateIPiLi8EE10unpackDataEP14ZCom_BitStreambj @498
    _ZN16ZCom_InterpolateIPiLi8EE12getRecValPtrEh @499
    _ZN16ZCom_InterpolateIPiLi8EE13clearPeekDataEv @500
    _ZN16ZCom_InterpolateIPiLi8EE7ProcessE14eZCom_NodeRolej @501
    _ZN16ZCom_InterpolateIPiLi8EE8getValueEh @502
    _ZN16ZCom_InterpolateIPiLi8EE8packDataEP14ZCom_BitStream @503
    _ZN16ZCom_InterpolateIPiLi8EE8peekDataEv @504
    _ZN16ZCom_InterpolateIPiLi8EE8setValueES0_ @505
    _ZN16ZCom_InterpolateIPiLi8EE8setValueEhi @506
    _ZN16ZCom_InterpolateIPiLi8EE9setRecValEhi @507
    _ZN16ZCom_InterpolateIPiLi8EEC1ES0_P22ZCom_RSetupInterpolateIiE @508
    _ZN16ZCom_InterpolateIPiLi8EEC1ES0_hhhiS0_hssf @509
    _ZN16ZCom_InterpolateIPiLi8EEC2ES0_P22ZCom_RSetupInterpolateIiE @510
    _ZN16ZCom_InterpolateIPiLi8EEC2ES0_hhhiS0_hssf @511
    _ZN16ZCom_InterpolateIPiLi8EED0Ev @512
    _ZN16ZCom_InterpolateIPiLi8EED1Ev @513
    _ZN16ZCom_InterpolateIPiLi8EED2Ev @514
    _ZN16ZCom_InterpolateIPiLi9EE10checkStateEv @515
    _ZN16ZCom_InterpolateIPiLi9EE10unpackDataEP14ZCom_BitStreambj @516
    _ZN16ZCom_InterpolateIPiLi9EE12getRecValPtrEh @517
    _ZN16ZCom_InterpolateIPiLi9EE13clearPeekDataEv @518
    _ZN16ZCom_InterpolateIPiLi9EE7ProcessE14eZCom_NodeRolej @519
    _ZN16ZCom_InterpolateIPiLi9EE8getValueEh @520
    _ZN16ZCom_InterpolateIPiLi9EE8packDataEP14ZCom_BitStream @521
    _ZN16ZCom_InterpolateIPiLi9EE8peekDataEv @522
    _ZN16ZCom_InterpolateIPiLi9EE8setValueES0_ @523
    _ZN16ZCom_InterpolateIPiLi9EE8setValueEhi @524
    _ZN16ZCom_InterpolateIPiLi9EE9setRecValEhi @525
    _ZN16ZCom_InterpolateIPiLi9EEC1ES0_P22ZCom_RSetupInterpolateIiE @526
    _ZN16ZCom_InterpolateIPiLi9EEC1ES0_hhhiS0_hssf @527
    _ZN16ZCom_InterpolateIPiLi9EEC2ES0_P22ZCom_RSetupInterpolateIiE @528
    _ZN16ZCom_InterpolateIPiLi9EEC2ES0_hhhiS0_hssf @529
    _ZN16ZCom_InterpolateIPiLi9EED0Ev @530
    _ZN16ZCom_InterpolateIPiLi9EED1Ev @531
    _ZN16ZCom_InterpolateIPiLi9EED2Ev @532
    _ZN16ZCom_InterpolateIPjLi10EE10checkStateEv @533
    _ZN16ZCom_InterpolateIPjLi10EE10unpackDataEP14ZCom_BitStreambj @534
    _ZN16ZCom_InterpolateIPjLi10EE12getRecValPtrEh @535
    _ZN16ZCom_InterpolateIPjLi10EE13clearPeekDataEv @536
    _ZN16ZCom_InterpolateIPjLi10EE7ProcessE14eZCom_NodeRolej @537
    _ZN16ZCom_InterpolateIPjLi10EE8getValueEh @538
    _ZN16ZCom_InterpolateIPjLi10EE8packDataEP14ZCom_BitStream @539
    _ZN16ZCom_InterpolateIPjLi10EE8peekDataEv @540
    _ZN16ZCom_InterpolateIPjLi10EE8setValueES0_ @541
    _ZN16ZCom_InterpolateIPjLi10EE8setValueEhj @542
    _ZN16ZCom_InterpolateIPjLi10EE9setRecValEhj @543
    _ZN16ZCom_InterpolateIPjLi10EEC1ES0_P22ZCom_RSetupInterpolateIjE @544
    _ZN16ZCom_InterpolateIPjLi10EEC1ES0_hhhjS0_hssf @545
    _ZN16ZCom_InterpolateIPjLi10EEC2ES0_P22ZCom_RSetupInterpolateIjE @546
    _ZN16ZCom_InterpolateIPjLi10EEC2ES0_hhhjS0_hssf @547
    _ZN16ZCom_InterpolateIPjLi10EED0Ev @548
    _ZN16ZCom_InterpolateIPjLi10EED1Ev @549
    _ZN16ZCom_InterpolateIPjLi10EED2Ev @550
    _ZN16ZCom_InterpolateIPjLi11EE10checkStateEv @551
    _ZN16ZCom_InterpolateIPjLi11EE10unpackDataEP14ZCom_BitStreambj @552
    _ZN16ZCom_InterpolateIPjLi11EE12getRecValPtrEh @553
    _ZN16ZCom_InterpolateIPjLi11EE13clearPeekDataEv @554
    _ZN16ZCom_InterpolateIPjLi11EE7ProcessE14eZCom_NodeRolej @555
    _ZN16ZCom_InterpolateIPjLi11EE8getValueEh @556
    _ZN16ZCom_InterpolateIPjLi11EE8packDataEP14ZCom_BitStream @557
    _ZN16ZCom_InterpolateIPjLi11EE8peekDataEv @558
    _ZN16ZCom_InterpolateIPjLi11EE8setValueES0_ @559
    _ZN16ZCom_InterpolateIPjLi11EE8setValueEhj @560
    _ZN16ZCom_InterpolateIPjLi11EE9setRecValEhj @561
    _ZN16ZCom_InterpolateIPjLi11EEC1ES0_P22ZCom_RSetupInterpolateIjE @562
    _ZN16ZCom_InterpolateIPjLi11EEC1ES0_hhhjS0_hssf @563
    _ZN16ZCom_InterpolateIPjLi11EEC2ES0_P22ZCom_RSetupInterpolateIjE @564
    _ZN16ZCom_InterpolateIPjLi11EEC2ES0_hhhjS0_hssf @565
    _ZN16ZCom_InterpolateIPjLi11EED0Ev @566
    _ZN16ZCom_InterpolateIPjLi11EED1Ev @567
    _ZN16ZCom_InterpolateIPjLi11EED2Ev @568
    _ZN16ZCom_InterpolateIPjLi12EE10checkStateEv @569
    _ZN16ZCom_InterpolateIPjLi12EE10unpackDataEP14ZCom_BitStreambj @570
    _ZN16ZCom_InterpolateIPjLi12EE12getRecValPtrEh @571
    _ZN16ZCom_InterpolateIPjLi12EE13clearPeekDataEv @572
    _ZN16ZCom_InterpolateIPjLi12EE7ProcessE14eZCom_NodeRolej @573
    _ZN16ZCom_InterpolateIPjLi12EE8getValueEh @574
    _ZN16ZCom_InterpolateIPjLi12EE8packDataEP14ZCom_BitStream @575
    _ZN16ZCom_InterpolateIPjLi12EE8peekDataEv @576
    _ZN16ZCom_InterpolateIPjLi12EE8setValueES0_ @577
    _ZN16ZCom_InterpolateIPjLi12EE8setValueEhj @578
    _ZN16ZCom_InterpolateIPjLi12EE9setRecValEhj @579
    _ZN16ZCom_InterpolateIPjLi12EEC1ES0_P22ZCom_RSetupInterpolateIjE @580
    _ZN16ZCom_InterpolateIPjLi12EEC1ES0_hhhjS0_hssf @581
    _ZN16ZCom_InterpolateIPjLi12EEC2ES0_P22ZCom_RSetupInterpolateIjE @582
    _ZN16ZCom_InterpolateIPjLi12EEC2ES0_hhhjS0_hssf @583
    _ZN16ZCom_InterpolateIPjLi12EED0Ev @584
    _ZN16ZCom_InterpolateIPjLi12EED1Ev @585
    _ZN16ZCom_InterpolateIPjLi12EED2Ev @586
    _ZN16ZCom_InterpolateIPjLi1EE10checkStateEv @587
    _ZN16ZCom_InterpolateIPjLi1EE10unpackDataEP14ZCom_BitStreambj @588
    _ZN16ZCom_InterpolateIPjLi1EE12getRecValPtrEh @589
    _ZN16ZCom_InterpolateIPjLi1EE13clearPeekDataEv @590
    _ZN16ZCom_InterpolateIPjLi1EE7ProcessE14eZCom_NodeRolej @591
    _ZN16ZCom_InterpolateIPjLi1EE8getValueEh @592
    _ZN16ZCom_InterpolateIPjLi1EE8packDataEP14ZCom_BitStream @593
    _ZN16ZCom_InterpolateIPjLi1EE8peekDataEv @594
    _ZN16ZCom_InterpolateIPjLi1EE8setValueES0_ @595
    _ZN16ZCom_InterpolateIPjLi1EE8setValueEhj @596
    _ZN16ZCom_InterpolateIPjLi1EE9setRecValEhj @597
    _ZN16ZCom_InterpolateIPjLi1EEC1ES0_P22ZCom_RSetupInterpolateIjE @598
    _ZN16ZCom_InterpolateIPjLi1EEC1ES0_hhhjS0_hssf @599
    _ZN16ZCom_InterpolateIPjLi1EEC2ES0_P22ZCom_RSetupInterpolateIjE @600
    _ZN16ZCom_InterpolateIPjLi1EEC2ES0_hhhjS0_hssf @601
    _ZN16ZCom_InterpolateIPjLi1EED0Ev @602
    _ZN16ZCom_InterpolateIPjLi1EED1Ev @603
    _ZN16ZCom_InterpolateIPjLi1EED2Ev @604
    _ZN16ZCom_InterpolateIPjLi2EE10checkStateEv @605
    _ZN16ZCom_InterpolateIPjLi2EE10unpackDataEP14ZCom_BitStreambj @606
    _ZN16ZCom_InterpolateIPjLi2EE12getRecValPtrEh @607
    _ZN16ZCom_InterpolateIPjLi2EE13clearPeekDataEv @608
    _ZN16ZCom_InterpolateIPjLi2EE7ProcessE14eZCom_NodeRolej @609
    _ZN16ZCom_InterpolateIPjLi2EE8getValueEh @610
    _ZN16ZCom_InterpolateIPjLi2EE8packDataEP14ZCom_BitStream @611
    _ZN16ZCom_InterpolateIPjLi2EE8peekDataEv @612
    _ZN16ZCom_InterpolateIPjLi2EE8setValueES0_ @613
    _ZN16ZCom_InterpolateIPjLi2EE8setValueEhj @614
    _ZN16ZCom_InterpolateIPjLi2EE9setRecValEhj @615
    _ZN16ZCom_InterpolateIPjLi2EEC1ES0_P22ZCom_RSetupInterpolateIjE @616
    _ZN16ZCom_InterpolateIPjLi2EEC1ES0_hhhjS0_hssf @617
    _ZN16ZCom_InterpolateIPjLi2EEC2ES0_P22ZCom_RSetupInterpolateIjE @618
    _ZN16ZCom_InterpolateIPjLi2EEC2ES0_hhhjS0_hssf @619
    _ZN16ZCom_InterpolateIPjLi2EED0Ev @620
    _ZN16ZCom_InterpolateIPjLi2EED1Ev @621
    _ZN16ZCom_InterpolateIPjLi2EED2Ev @622
    _ZN16ZCom_InterpolateIPjLi3EE10checkStateEv @623
    _ZN16ZCom_InterpolateIPjLi3EE10unpackDataEP14ZCom_BitStreambj @624
    _ZN16ZCom_InterpolateIPjLi3EE12getRecValPtrEh @625
    _ZN16ZCom_InterpolateIPjLi3EE13clearPeekDataEv @626
    _ZN16ZCom_InterpolateIPjLi3EE7ProcessE14eZCom_NodeRolej @627
    _ZN16ZCom_InterpolateIPjLi3EE8getValueEh @628
    _ZN16ZCom_InterpolateIPjLi3EE8packDataEP14ZCom_BitStream @629
    _ZN16ZCom_InterpolateIPjLi3EE8peekDataEv @630
    _ZN16ZCom_InterpolateIPjLi3EE8setValueES0_ @631
    _ZN16ZCom_InterpolateIPjLi3EE8setValueEhj @632
    _ZN16ZCom_InterpolateIPjLi3EE9setRecValEhj @633
    _ZN16ZCom_InterpolateIPjLi3EEC1ES0_P22ZCom_RSetupInterpolateIjE @634
    _ZN16ZCom_InterpolateIPjLi3EEC1ES0_hhhjS0_hssf @635
    _ZN16ZCom_InterpolateIPjLi3EEC2ES0_P22ZCom_RSetupInterpolateIjE @636
    _ZN16ZCom_InterpolateIPjLi3EEC2ES0_hhhjS0_hssf @637
    _ZN16ZCom_InterpolateIPjLi3EED0Ev @638
    _ZN16ZCom_InterpolateIPjLi3EED1Ev @639
    _ZN16ZCom_InterpolateIPjLi3EED2Ev @640
    _ZN16ZCom_InterpolateIPjLi4EE10checkStateEv @641
    _ZN16ZCom_InterpolateIPjLi4EE10unpackDataEP14ZCom_BitStreambj @642
    _ZN16ZCom_InterpolateIPjLi4EE12getRecValPtrEh @643
    _ZN16ZCom_InterpolateIPjLi4EE13clearPeekDataEv @644
    _ZN16ZCom_InterpolateIPjLi4EE7ProcessE14eZCom_NodeRolej @645
    _ZN16ZCom_InterpolateIPjLi4EE8getValueEh @646
    _ZN16ZCom_InterpolateIPjLi4EE8packDataEP14ZCom_BitStream @647
    _ZN16ZCom_InterpolateIPjLi4EE8peekDataEv @648
    _ZN16ZCom_InterpolateIPjLi4EE8setValueES0_ @649
    _ZN16ZCom_InterpolateIPjLi4EE8setValueEhj @650
    _ZN16ZCom_InterpolateIPjLi4EE9setRecValEhj @651
    _ZN16ZCom_InterpolateIPjLi4EEC1ES0_P22ZCom_RSetupInterpolateIjE @652
    _ZN16ZCom_InterpolateIPjLi4EEC1ES0_hhhjS0_hssf @653
    _ZN16ZCom_InterpolateIPjLi4EEC2ES0_P22ZCom_RSetupInterpolateIjE @654
    _ZN16ZCom_InterpolateIPjLi4EEC2ES0_hhhjS0_hssf @655
    _ZN16ZCom_InterpolateIPjLi4EED0Ev @656
    _ZN16ZCom_InterpolateIPjLi4EED1Ev @657
    _ZN16ZCom_InterpolateIPjLi4EED2Ev @658
    _ZN16ZCom_InterpolateIPjLi5EE10checkStateEv @659
    _ZN16ZCom_InterpolateIPjLi5EE10unpackDataEP14ZCom_BitStreambj @660
    _ZN16ZCom_InterpolateIPjLi5EE12getRecValPtrEh @661
    _ZN16ZCom_InterpolateIPjLi5EE13clearPeekDataEv @662
    _ZN16ZCom_InterpolateIPjLi5EE7ProcessE14eZCom_NodeRolej @663
    _ZN16ZCom_InterpolateIPjLi5EE8getValueEh @664
    _ZN16ZCom_InterpolateIPjLi5EE8packDataEP14ZCom_BitStream @665
    _ZN16ZCom_InterpolateIPjLi5EE8peekDataEv @666
    _ZN16ZCom_InterpolateIPjLi5EE8setValueES0_ @667
    _ZN16ZCom_InterpolateIPjLi5EE8setValueEhj @668
    _ZN16ZCom_InterpolateIPjLi5EE9setRecValEhj @669
    _ZN16ZCom_InterpolateIPjLi5EEC1ES0_P22ZCom_RSetupInterpolateIjE @670
    _ZN16ZCom_InterpolateIPjLi5EEC1ES0_hhhjS0_hssf @671
    _ZN16ZCom_InterpolateIPjLi5EEC2ES0_P22ZCom_RSetupInterpolateIjE @672
    _ZN16ZCom_InterpolateIPjLi5EEC2ES0_hhhjS0_hssf @673
    _ZN16ZCom_InterpolateIPjLi5EED0Ev @674
    _ZN16ZCom_InterpolateIPjLi5EED1Ev @675
    _ZN16ZCom_InterpolateIPjLi5EED2Ev @676
    _ZN16ZCom_InterpolateIPjLi6EE10checkStateEv @677
    _ZN16ZCom_InterpolateIPjLi6EE10unpackDataEP14ZCom_BitStreambj @678
    _ZN16ZCom_InterpolateIPjLi6EE12getRecValPtrEh @679
    _ZN16ZCom_InterpolateIPjLi6EE13clearPeekDataEv @680
    _ZN16ZCom_InterpolateIPjLi6EE7ProcessE14eZCom_NodeRolej @681
    _ZN16ZCom_InterpolateIPjLi6EE8getValueEh @682
    _ZN16ZCom_InterpolateIPjLi6EE8packDataEP14ZCom_BitStream @683
    _ZN16ZCom_InterpolateIPjLi6EE8peekDataEv @684
    _ZN16ZCom_InterpolateIPjLi6EE8setValueES0_ @685
    _ZN16ZCom_InterpolateIPjLi6EE8setValueEhj @686
    _ZN16ZCom_InterpolateIPjLi6EE9setRecValEhj @687
    _ZN16ZCom_InterpolateIPjLi6EEC1ES0_P22ZCom_RSetupInterpolateIjE @688
    _ZN16ZCom_InterpolateIPjLi6EEC1ES0_hhhjS0_hssf @689
    _ZN16ZCom_InterpolateIPjLi6EEC2ES0_P22ZCom_RSetupInterpolateIjE @690
    _ZN16ZCom_InterpolateIPjLi6EEC2ES0_hhhjS0_hssf @691
    _ZN16ZCom_InterpolateIPjLi6EED0Ev @692
    _ZN16ZCom_InterpolateIPjLi6EED1Ev @693
    _ZN16ZCom_InterpolateIPjLi6EED2Ev @694
    _ZN16ZCom_InterpolateIPjLi7EE10checkStateEv @695
    _ZN16ZCom_InterpolateIPjLi7EE10unpackDataEP14ZCom_BitStreambj @696
    _ZN16ZCom_InterpolateIPjLi7EE12getRecValPtrEh @697
    _ZN16ZCom_InterpolateIPjLi7EE13clearPeekDataEv @698
    _ZN16ZCom_InterpolateIPjLi7EE7ProcessE14eZCom_NodeRolej @699
    _ZN16ZCom_InterpolateIPjLi7EE8getValueEh @700
    _ZN16ZCom_InterpolateIPjLi7EE8packDataEP14ZCom_BitStream @701
    _ZN16ZCom_InterpolateIPjLi7EE8peekDataEv @702
    _ZN16ZCom_InterpolateIPjLi7EE8setValueES0_ @703
    _ZN16ZCom_InterpolateIPjLi7EE8setValueEhj @704
    _ZN16ZCom_InterpolateIPjLi7EE9setRecValEhj @705
    _ZN16ZCom_InterpolateIPjLi7EEC1ES0_P22ZCom_RSetupInterpolateIjE @706
    _ZN16ZCom_InterpolateIPjLi7EEC1ES0_hhhjS0_hssf @707
    _ZN16ZCom_InterpolateIPjLi7EEC2ES0_P22ZCom_RSetupInterpolateIjE @708
    _ZN16ZCom_InterpolateIPjLi7EEC2ES0_hhhjS0_hssf @709
    _ZN16ZCom_InterpolateIPjLi7EED0Ev @710
    _ZN16ZCom_InterpolateIPjLi7EED1Ev @711
    _ZN16ZCom_InterpolateIPjLi7EED2Ev @712
    _ZN16ZCom_InterpolateIPjLi8EE10checkStateEv @713
    _ZN16ZCom_InterpolateIPjLi8EE10unpackDataEP14ZCom_BitStreambj @714
    _ZN16ZCom_InterpolateIPjLi8EE12getRecValPtrEh @715
    _ZN16ZCom_InterpolateIPjLi8EE13clearPeekDataEv @716
    _ZN16ZCom_InterpolateIPjLi8EE7ProcessE14eZCom_NodeRolej @717
    _ZN16ZCom_InterpolateIPjLi8EE8getValueEh @718
    _ZN16ZCom_InterpolateIPjLi8EE8packDataEP14ZCom_BitStream @719
    _ZN16ZCom_InterpolateIPjLi8EE8peekDataEv @720
    _ZN16ZCom_InterpolateIPjLi8EE8setValueES0_ @721
    _ZN16ZCom_InterpolateIPjLi8EE8setValueEhj @722
    _ZN16ZCom_InterpolateIPjLi8EE9setRecValEhj @723
    _ZN16ZCom_InterpolateIPjLi8EEC1ES0_P22ZCom_RSetupInterpolateIjE @724
    _ZN16ZCom_InterpolateIPjLi8EEC1ES0_hhhjS0_hssf @725
    _ZN16ZCom_InterpolateIPjLi8EEC2ES0_P22ZCom_RSetupInterpolateIjE @726
    _ZN16ZCom_InterpolateIPjLi8EEC2ES0_hhhjS0_hssf @727
    _ZN16ZCom_InterpolateIPjLi8EED0Ev @728
    _ZN16ZCom_InterpolateIPjLi8EED1Ev @729
    _ZN16ZCom_InterpolateIPjLi8EED2Ev @730
    _ZN16ZCom_InterpolateIPjLi9EE10checkStateEv @731
    _ZN16ZCom_InterpolateIPjLi9EE10unpackDataEP14ZCom_BitStreambj @732
    _ZN16ZCom_InterpolateIPjLi9EE12getRecValPtrEh @733
    _ZN16ZCom_InterpolateIPjLi9EE13clearPeekDataEv @734
    _ZN16ZCom_InterpolateIPjLi9EE7ProcessE14eZCom_NodeRolej @735
    _ZN16ZCom_InterpolateIPjLi9EE8getValueEh @736
    _ZN16ZCom_InterpolateIPjLi9EE8packDataEP14ZCom_BitStream @737
    _ZN16ZCom_InterpolateIPjLi9EE8peekDataEv @738
    _ZN16ZCom_InterpolateIPjLi9EE8setValueES0_ @739
    _ZN16ZCom_InterpolateIPjLi9EE8setValueEhj @740
    _ZN16ZCom_InterpolateIPjLi9EE9setRecValEhj @741
    _ZN16ZCom_InterpolateIPjLi9EEC1ES0_P22ZCom_RSetupInterpolateIjE @742
    _ZN16ZCom_InterpolateIPjLi9EEC1ES0_hhhjS0_hssf @743
    _ZN16ZCom_InterpolateIPjLi9EEC2ES0_P22ZCom_RSetupInterpolateIjE @744
    _ZN16ZCom_InterpolateIPjLi9EEC2ES0_hhhjS0_hssf @745
    _ZN16ZCom_InterpolateIPjLi9EED0Ev @746
    _ZN16ZCom_InterpolateIPjLi9EED1Ev @747
    _ZN16ZCom_InterpolateIPjLi9EED2Ev @748
    _ZN16ZCom_InterpolateIfLi10EE10checkStateEv @749
    _ZN16ZCom_InterpolateIfLi10EE10unpackDataEP14ZCom_BitStreambj @750
    _ZN16ZCom_InterpolateIfLi10EE12getRecValPtrEh @751
    _ZN16ZCom_InterpolateIfLi10EE13clearPeekDataEv @752
    _ZN16ZCom_InterpolateIfLi10EE7ProcessE14eZCom_NodeRolej @753
    _ZN16ZCom_InterpolateIfLi10EE8getValueEh @754
    _ZN16ZCom_InterpolateIfLi10EE8packDataEP14ZCom_BitStream @755
    _ZN16ZCom_InterpolateIfLi10EE8peekDataEv @756
    _ZN16ZCom_InterpolateIfLi10EE8setValueEPf @757
    _ZN16ZCom_InterpolateIfLi10EE8setValueEhf @758
    _ZN16ZCom_InterpolateIfLi10EE9setRecValEhf @759
    _ZN16ZCom_InterpolateIfLi10EEC1EPfP22ZCom_RSetupInterpolateIfE @760
    _ZN16ZCom_InterpolateIfLi10EEC1EPfhhhfS1_hssf @761
    _ZN16ZCom_InterpolateIfLi10EEC2EPfP22ZCom_RSetupInterpolateIfE @762
    _ZN16ZCom_InterpolateIfLi10EEC2EPfhhhfS1_hssf @763
    _ZN16ZCom_InterpolateIfLi10EED0Ev @764
    _ZN16ZCom_InterpolateIfLi10EED1Ev @765
    _ZN16ZCom_InterpolateIfLi10EED2Ev @766
    _ZN16ZCom_InterpolateIfLi11EE10checkStateEv @767
    _ZN16ZCom_InterpolateIfLi11EE10unpackDataEP14ZCom_BitStreambj @768
    _ZN16ZCom_InterpolateIfLi11EE12getRecValPtrEh @769
    _ZN16ZCom_InterpolateIfLi11EE13clearPeekDataEv @770
    _ZN16ZCom_InterpolateIfLi11EE7ProcessE14eZCom_NodeRolej @771
    _ZN16ZCom_InterpolateIfLi11EE8getValueEh @772
    _ZN16ZCom_InterpolateIfLi11EE8packDataEP14ZCom_BitStream @773
    _ZN16ZCom_InterpolateIfLi11EE8peekDataEv @774
    _ZN16ZCom_InterpolateIfLi11EE8setValueEPf @775
    _ZN16ZCom_InterpolateIfLi11EE8setValueEhf @776
    _ZN16ZCom_InterpolateIfLi11EE9setRecValEhf @777
    _ZN16ZCom_InterpolateIfLi11EEC1EPfP22ZCom_RSetupInterpolateIfE @778
    _ZN16ZCom_InterpolateIfLi11EEC1EPfhhhfS1_hssf @779
    _ZN16ZCom_InterpolateIfLi11EEC2EPfP22ZCom_RSetupInterpolateIfE @780
    _ZN16ZCom_InterpolateIfLi11EEC2EPfhhhfS1_hssf @781
    _ZN16ZCom_InterpolateIfLi11EED0Ev @782
    _ZN16ZCom_InterpolateIfLi11EED1Ev @783
    _ZN16ZCom_InterpolateIfLi11EED2Ev @784
    _ZN16ZCom_InterpolateIfLi12EE10checkStateEv @785
    _ZN16ZCom_InterpolateIfLi12EE10unpackDataEP14ZCom_BitStreambj @786
    _ZN16ZCom_InterpolateIfLi12EE12getRecValPtrEh @787
    _ZN16ZCom_InterpolateIfLi12EE13clearPeekDataEv @788
    _ZN16ZCom_InterpolateIfLi12EE7ProcessE14eZCom_NodeRolej @789
    _ZN16ZCom_InterpolateIfLi12EE8getValueEh @790
    _ZN16ZCom_InterpolateIfLi12EE8packDataEP14ZCom_BitStream @791
    _ZN16ZCom_InterpolateIfLi12EE8peekDataEv @792
    _ZN16ZCom_InterpolateIfLi12EE8setValueEPf @793
    _ZN16ZCom_InterpolateIfLi12EE8setValueEhf @794
    _ZN16ZCom_InterpolateIfLi12EE9setRecValEhf @795
    _ZN16ZCom_InterpolateIfLi12EEC1EPfP22ZCom_RSetupInterpolateIfE @796
    _ZN16ZCom_InterpolateIfLi12EEC1EPfhhhfS1_hssf @797
    _ZN16ZCom_InterpolateIfLi12EEC2EPfP22ZCom_RSetupInterpolateIfE @798
    _ZN16ZCom_InterpolateIfLi12EEC2EPfhhhfS1_hssf @799
    _ZN16ZCom_InterpolateIfLi12EED0Ev @800
    _ZN16ZCom_InterpolateIfLi12EED1Ev @801
    _ZN16ZCom_InterpolateIfLi12EED2Ev @802
    _ZN16ZCom_InterpolateIfLi1EE10checkStateEv @803
    _ZN16ZCom_InterpolateIfLi1EE10unpackDataEP14ZCom_BitStreambj @804
    _ZN16ZCom_InterpolateIfLi1EE12getRecValPtrEh @805
    _ZN16ZCom_InterpolateIfLi1EE13clearPeekDataEv @806
    _ZN16ZCom_InterpolateIfLi1EE7ProcessE14eZCom_NodeRolej @807
    _ZN16ZCom_InterpolateIfLi1EE8getValueEh @808
    _ZN16ZCom_InterpolateIfLi1EE8packDataEP14ZCom_BitStream @809
    _ZN16ZCom_InterpolateIfLi1EE8peekDataEv @810
    _ZN16ZCom_InterpolateIfLi1EE8setValueEPf @811
    _ZN16ZCom_InterpolateIfLi1EE8setValueEhf @812
    _ZN16ZCom_InterpolateIfLi1EE9setRecValEhf @813
    _ZN16ZCom_InterpolateIfLi1EEC1EPfP22ZCom_RSetupInterpolateIfE @814
    _ZN16ZCom_InterpolateIfLi1EEC1EPfhhhfS1_hssf @815
    _ZN16ZCom_InterpolateIfLi1EEC2EPfP22ZCom_RSetupInterpolateIfE @816
    _ZN16ZCom_InterpolateIfLi1EEC2EPfhhhfS1_hssf @817
    _ZN16ZCom_InterpolateIfLi1EED0Ev @818
    _ZN16ZCom_InterpolateIfLi1EED1Ev @819
    _ZN16ZCom_InterpolateIfLi1EED2Ev @820
    _ZN16ZCom_InterpolateIfLi2EE10checkStateEv @821
    _ZN16ZCom_InterpolateIfLi2EE10unpackDataEP14ZCom_BitStreambj @822
    _ZN16ZCom_InterpolateIfLi2EE12getRecValPtrEh @823
    _ZN16ZCom_InterpolateIfLi2EE13clearPeekDataEv @824
    _ZN16ZCom_InterpolateIfLi2EE7ProcessE14eZCom_NodeRolej @825
    _ZN16ZCom_InterpolateIfLi2EE8getValueEh @826
    _ZN16ZCom_InterpolateIfLi2EE8packDataEP14ZCom_BitStream @827
    _ZN16ZCom_InterpolateIfLi2EE8peekDataEv @828
    _ZN16ZCom_InterpolateIfLi2EE8setValueEPf @829
    _ZN16ZCom_InterpolateIfLi2EE8setValueEhf @830
    _ZN16ZCom_InterpolateIfLi2EE9setRecValEhf @831
    _ZN16ZCom_InterpolateIfLi2EEC1EPfP22ZCom_RSetupInterpolateIfE @832
    _ZN16ZCom_InterpolateIfLi2EEC1EPfhhhfS1_hssf @833
    _ZN16ZCom_InterpolateIfLi2EEC2EPfP22ZCom_RSetupInterpolateIfE @834
    _ZN16ZCom_InterpolateIfLi2EEC2EPfhhhfS1_hssf @835
    _ZN16ZCom_InterpolateIfLi2EED0Ev @836
    _ZN16ZCom_InterpolateIfLi2EED1Ev @837
    _ZN16ZCom_InterpolateIfLi2EED2Ev @838
    _ZN16ZCom_InterpolateIfLi3EE10checkStateEv @839
    _ZN16ZCom_InterpolateIfLi3EE10unpackDataEP14ZCom_BitStreambj @840
    _ZN16ZCom_InterpolateIfLi3EE12getRecValPtrEh @841
    _ZN16ZCom_InterpolateIfLi3EE13clearPeekDataEv @842
    _ZN16ZCom_InterpolateIfLi3EE7ProcessE14eZCom_NodeRolej @843
    _ZN16ZCom_InterpolateIfLi3EE8getValueEh @844
    _ZN16ZCom_InterpolateIfLi3EE8packDataEP14ZCom_BitStream @845
    _ZN16ZCom_InterpolateIfLi3EE8peekDataEv @846
    _ZN16ZCom_InterpolateIfLi3EE8setValueEPf @847
    _ZN16ZCom_InterpolateIfLi3EE8setValueEhf @848
    _ZN16ZCom_InterpolateIfLi3EE9setRecValEhf @849
    _ZN16ZCom_InterpolateIfLi3EEC1EPfP22ZCom_RSetupInterpolateIfE @850
    _ZN16ZCom_InterpolateIfLi3EEC1EPfhhhfS1_hssf @851
    _ZN16ZCom_InterpolateIfLi3EEC2EPfP22ZCom_RSetupInterpolateIfE @852
    _ZN16ZCom_InterpolateIfLi3EEC2EPfhhhfS1_hssf @853
    _ZN16ZCom_InterpolateIfLi3EED0Ev @854
    _ZN16ZCom_InterpolateIfLi3EED1Ev @855
    _ZN16ZCom_InterpolateIfLi3EED2Ev @856
    _ZN16ZCom_InterpolateIfLi4EE10checkStateEv @857
    _ZN16ZCom_InterpolateIfLi4EE10unpackDataEP14ZCom_BitStreambj @858
    _ZN16ZCom_InterpolateIfLi4EE12getRecValPtrEh @859
    _ZN16ZCom_InterpolateIfLi4EE13clearPeekDataEv @860
    _ZN16ZCom_InterpolateIfLi4EE7ProcessE14eZCom_NodeRolej @861
    _ZN16ZCom_InterpolateIfLi4EE8getValueEh @862
    _ZN16ZCom_InterpolateIfLi4EE8packDataEP14ZCom_BitStream @863
    _ZN16ZCom_InterpolateIfLi4EE8peekDataEv @864
    _ZN16ZCom_InterpolateIfLi4EE8setValueEPf @865
    _ZN16ZCom_InterpolateIfLi4EE8setValueEhf @866
    _ZN16ZCom_InterpolateIfLi4EE9setRecValEhf @867
    _ZN16ZCom_InterpolateIfLi4EEC1EPfP22ZCom_RSetupInterpolateIfE @868
    _ZN16ZCom_InterpolateIfLi4EEC1EPfhhhfS1_hssf @869
    _ZN16ZCom_InterpolateIfLi4EEC2EPfP22ZCom_RSetupInterpolateIfE @870
    _ZN16ZCom_InterpolateIfLi4EEC2EPfhhhfS1_hssf @871
    _ZN16ZCom_InterpolateIfLi4EED0Ev @872
    _ZN16ZCom_InterpolateIfLi4EED1Ev @873
    _ZN16ZCom_InterpolateIfLi4EED2Ev @874
    _ZN16ZCom_InterpolateIfLi5EE10checkStateEv @875
    _ZN16ZCom_InterpolateIfLi5EE10unpackDataEP14ZCom_BitStreambj @876
    _ZN16ZCom_InterpolateIfLi5EE12getRecValPtrEh @877
    _ZN16ZCom_InterpolateIfLi5EE13clearPeekDataEv @878
    _ZN16ZCom_InterpolateIfLi5EE7ProcessE14eZCom_NodeRolej @879
    _ZN16ZCom_InterpolateIfLi5EE8getValueEh @880
    _ZN16ZCom_InterpolateIfLi5EE8packDataEP14ZCom_BitStream @881
    _ZN16ZCom_InterpolateIfLi5EE8peekDataEv @882
    _ZN16ZCom_InterpolateIfLi5EE8setValueEPf @883
    _ZN16ZCom_InterpolateIfLi5EE8setValueEhf @884
    _ZN16ZCom_InterpolateIfLi5EE9setRecValEhf @885
    _ZN16ZCom_InterpolateIfLi5EEC1EPfP22ZCom_RSetupInterpolateIfE @886
    _ZN16ZCom_InterpolateIfLi5EEC1EPfhhhfS1_hssf @887
    _ZN16ZCom_InterpolateIfLi5EEC2EPfP22ZCom_RSetupInterpolateIfE @888
    _ZN16ZCom_InterpolateIfLi5EEC2EPfhhhfS1_hssf @889
    _ZN16ZCom_InterpolateIfLi5EED0Ev @890
    _ZN16ZCom_InterpolateIfLi5EED1Ev @891
    _ZN16ZCom_InterpolateIfLi5EED2Ev @892
    _ZN16ZCom_InterpolateIfLi6EE10checkStateEv @893
    _ZN16ZCom_InterpolateIfLi6EE10unpackDataEP14ZCom_BitStreambj @894
    _ZN16ZCom_InterpolateIfLi6EE12getRecValPtrEh @895
    _ZN16ZCom_InterpolateIfLi6EE13clearPeekDataEv @896
    _ZN16ZCom_InterpolateIfLi6EE7ProcessE14eZCom_NodeRolej @897
    _ZN16ZCom_InterpolateIfLi6EE8getValueEh @898
    _ZN16ZCom_InterpolateIfLi6EE8packDataEP14ZCom_BitStream @899
    _ZN16ZCom_InterpolateIfLi6EE8peekDataEv @900
    _ZN16ZCom_InterpolateIfLi6EE8setValueEPf @901
    _ZN16ZCom_InterpolateIfLi6EE8setValueEhf @902
    _ZN16ZCom_InterpolateIfLi6EE9setRecValEhf @903
    _ZN16ZCom_InterpolateIfLi6EEC1EPfP22ZCom_RSetupInterpolateIfE @904
    _ZN16ZCom_InterpolateIfLi6EEC1EPfhhhfS1_hssf @905
    _ZN16ZCom_InterpolateIfLi6EEC2EPfP22ZCom_RSetupInterpolateIfE @906
    _ZN16ZCom_InterpolateIfLi6EEC2EPfhhhfS1_hssf @907
    _ZN16ZCom_InterpolateIfLi6EED0Ev @908
    _ZN16ZCom_InterpolateIfLi6EED1Ev @909
    _ZN16ZCom_InterpolateIfLi6EED2Ev @910
    _ZN16ZCom_InterpolateIfLi7EE10checkStateEv @911
    _ZN16ZCom_InterpolateIfLi7EE10unpackDataEP14ZCom_BitStreambj @912
    _ZN16ZCom_InterpolateIfLi7EE12getRecValPtrEh @913
    _ZN16ZCom_InterpolateIfLi7EE13clearPeekDataEv @914
    _ZN16ZCom_InterpolateIfLi7EE7ProcessE14eZCom_NodeRolej @915
    _ZN16ZCom_InterpolateIfLi7EE8getValueEh @916
    _ZN16ZCom_InterpolateIfLi7EE8packDataEP14ZCom_BitStream @917
    _ZN16ZCom_InterpolateIfLi7EE8peekDataEv @918
    _ZN16ZCom_InterpolateIfLi7EE8setValueEPf @919
    _ZN16ZCom_InterpolateIfLi7EE8setValueEhf @920
    _ZN16ZCom_InterpolateIfLi7EE9setRecValEhf @921
    _ZN16ZCom_InterpolateIfLi7EEC1EPfP22ZCom_RSetupInterpolateIfE @922
    _ZN16ZCom_InterpolateIfLi7EEC1EPfhhhfS1_hssf @923
    _ZN16ZCom_InterpolateIfLi7EEC2EPfP22ZCom_RSetupInterpolateIfE @924
    _ZN16ZCom_InterpolateIfLi7EEC2EPfhhhfS1_hssf @925
    _ZN16ZCom_InterpolateIfLi7EED0Ev @926
    _ZN16ZCom_InterpolateIfLi7EED1Ev @927
    _ZN16ZCom_InterpolateIfLi7EED2Ev @928
    _ZN16ZCom_InterpolateIfLi8EE10checkStateEv @929
    _ZN16ZCom_InterpolateIfLi8EE10unpackDataEP14ZCom_BitStreambj @930
    _ZN16ZCom_InterpolateIfLi8EE12getRecValPtrEh @931
    _ZN16ZCom_InterpolateIfLi8EE13clearPeekDataEv @932
    _ZN16ZCom_InterpolateIfLi8EE7ProcessE14eZCom_NodeRolej @933
    _ZN16ZCom_InterpolateIfLi8EE8getValueEh @934
    _ZN16ZCom_InterpolateIfLi8EE8packDataEP14ZCom_BitStream @935
    _ZN16ZCom_InterpolateIfLi8EE8peekDataEv @936
    _ZN16ZCom_InterpolateIfLi8EE8setValueEPf @937
    _ZN16ZCom_InterpolateIfLi8EE8setValueEhf @938
    _ZN16ZCom_InterpolateIfLi8EE9setRecValEhf @939
    _ZN16ZCom_InterpolateIfLi8EEC1EPfP22ZCom_RSetupInterpolateIfE @940
    _ZN16ZCom_InterpolateIfLi8EEC1EPfhhhfS1_hssf @941
    _ZN16ZCom_InterpolateIfLi8EEC2EPfP22ZCom_RSetupInterpolateIfE @942
    _ZN16ZCom_InterpolateIfLi8EEC2EPfhhhfS1_hssf @943
    _ZN16ZCom_InterpolateIfLi8EED0Ev @944
    _ZN16ZCom_InterpolateIfLi8EED1Ev @945
    _ZN16ZCom_InterpolateIfLi8EED2Ev @946
    _ZN16ZCom_InterpolateIfLi9EE10checkStateEv @947
    _ZN16ZCom_InterpolateIfLi9EE10unpackDataEP14ZCom_BitStreambj @948
    _ZN16ZCom_InterpolateIfLi9EE12getRecValPtrEh @949
    _ZN16ZCom_InterpolateIfLi9EE13clearPeekDataEv @950
    _ZN16ZCom_InterpolateIfLi9EE7ProcessE14eZCom_NodeRolej @951
    _ZN16ZCom_InterpolateIfLi9EE8getValueEh @952
    _ZN16ZCom_InterpolateIfLi9EE8packDataEP14ZCom_BitStream @953
    _ZN16ZCom_InterpolateIfLi9EE8peekDataEv @954
    _ZN16ZCom_InterpolateIfLi9EE8setValueEPf @955
    _ZN16ZCom_InterpolateIfLi9EE8setValueEhf @956
    _ZN16ZCom_InterpolateIfLi9EE9setRecValEhf @957
    _ZN16ZCom_InterpolateIfLi9EEC1EPfP22ZCom_RSetupInterpolateIfE @958
    _ZN16ZCom_InterpolateIfLi9EEC1EPfhhhfS1_hssf @959
    _ZN16ZCom_InterpolateIfLi9EEC2EPfP22ZCom_RSetupInterpolateIfE @960
    _ZN16ZCom_InterpolateIfLi9EEC2EPfhhhfS1_hssf @961
    _ZN16ZCom_InterpolateIfLi9EED0Ev @962
    _ZN16ZCom_InterpolateIfLi9EED1Ev @963
    _ZN16ZCom_InterpolateIfLi9EED2Ev @964
    _ZN16ZCom_InterpolateIiLi10EE10checkStateEv @965
    _ZN16ZCom_InterpolateIiLi10EE10unpackDataEP14ZCom_BitStreambj @966
    _ZN16ZCom_InterpolateIiLi10EE12getRecValPtrEh @967
    _ZN16ZCom_InterpolateIiLi10EE13clearPeekDataEv @968
    _ZN16ZCom_InterpolateIiLi10EE7ProcessE14eZCom_NodeRolej @969
    _ZN16ZCom_InterpolateIiLi10EE8getValueEh @970
    _ZN16ZCom_InterpolateIiLi10EE8packDataEP14ZCom_BitStream @971
    _ZN16ZCom_InterpolateIiLi10EE8peekDataEv @972
    _ZN16ZCom_InterpolateIiLi10EE8setValueEPi @973
    _ZN16ZCom_InterpolateIiLi10EE8setValueEhi @974
    _ZN16ZCom_InterpolateIiLi10EE9setRecValEhi @975
    _ZN16ZCom_InterpolateIiLi10EEC1EPiP22ZCom_RSetupInterpolateIiE @976
    _ZN16ZCom_InterpolateIiLi10EEC1EPihhhiS1_hssf @977
    _ZN16ZCom_InterpolateIiLi10EEC2EPiP22ZCom_RSetupInterpolateIiE @978
    _ZN16ZCom_InterpolateIiLi10EEC2EPihhhiS1_hssf @979
    _ZN16ZCom_InterpolateIiLi10EED0Ev @980
    _ZN16ZCom_InterpolateIiLi10EED1Ev @981
    _ZN16ZCom_InterpolateIiLi10EED2Ev @982
    _ZN16ZCom_InterpolateIiLi11EE10checkStateEv @983
    _ZN16ZCom_InterpolateIiLi11EE10unpackDataEP14ZCom_BitStreambj @984
    _ZN16ZCom_InterpolateIiLi11EE12getRecValPtrEh @985
    _ZN16ZCom_InterpolateIiLi11EE13clearPeekDataEv @986
    _ZN16ZCom_InterpolateIiLi11EE7ProcessE14eZCom_NodeRolej @987
    _ZN16ZCom_InterpolateIiLi11EE8getValueEh @988
    _ZN16ZCom_InterpolateIiLi11EE8packDataEP14ZCom_BitStream @989
    _ZN16ZCom_InterpolateIiLi11EE8peekDataEv @990
    _ZN16ZCom_InterpolateIiLi11EE8setValueEPi @991
    _ZN16ZCom_InterpolateIiLi11EE8setValueEhi @992
    _ZN16ZCom_InterpolateIiLi11EE9setRecValEhi @993
    _ZN16ZCom_InterpolateIiLi11EEC1EPiP22ZCom_RSetupInterpolateIiE @994
    _ZN16ZCom_InterpolateIiLi11EEC1EPihhhiS1_hssf @995
    _ZN16ZCom_InterpolateIiLi11EEC2EPiP22ZCom_RSetupInterpolateIiE @996
    _ZN16ZCom_InterpolateIiLi11EEC2EPihhhiS1_hssf @997
    _ZN16ZCom_InterpolateIiLi11EED0Ev @998
    _ZN16ZCom_InterpolateIiLi11EED1Ev @999
    _ZN16ZCom_InterpolateIiLi11EED2Ev @1000
    _ZN16ZCom_InterpolateIiLi12EE10checkStateEv @1001
    _ZN16ZCom_InterpolateIiLi12EE10unpackDataEP14ZCom_BitStreambj @1002
    _ZN16ZCom_InterpolateIiLi12EE12getRecValPtrEh @1003
    _ZN16ZCom_InterpolateIiLi12EE13clearPeekDataEv @1004
    _ZN16ZCom_InterpolateIiLi12EE7ProcessE14eZCom_NodeRolej @1005
    _ZN16ZCom_InterpolateIiLi12EE8getValueEh @1006
    _ZN16ZCom_InterpolateIiLi12EE8packDataEP14ZCom_BitStream @1007
    _ZN16ZCom_InterpolateIiLi12EE8peekDataEv @1008
    _ZN16ZCom_InterpolateIiLi12EE8setValueEPi @1009
    _ZN16ZCom_InterpolateIiLi12EE8setValueEhi @1010
    _ZN16ZCom_InterpolateIiLi12EE9setRecValEhi @1011
    _ZN16ZCom_InterpolateIiLi12EEC1EPiP22ZCom_RSetupInterpolateIiE @1012
    _ZN16ZCom_InterpolateIiLi12EEC1EPihhhiS1_hssf @1013
    _ZN16ZCom_InterpolateIiLi12EEC2EPiP22ZCom_RSetupInterpolateIiE @1014
    _ZN16ZCom_InterpolateIiLi12EEC2EPihhhiS1_hssf @1015
    _ZN16ZCom_InterpolateIiLi12EED0Ev @1016
    _ZN16ZCom_InterpolateIiLi12EED1Ev @1017
    _ZN16ZCom_InterpolateIiLi12EED2Ev @1018
    _ZN16ZCom_InterpolateIiLi1EE10checkStateEv @1019
    _ZN16ZCom_InterpolateIiLi1EE10unpackDataEP14ZCom_BitStreambj @1020
    _ZN16ZCom_InterpolateIiLi1EE12getRecValPtrEh @1021
    _ZN16ZCom_InterpolateIiLi1EE13clearPeekDataEv @1022
    _ZN16ZCom_InterpolateIiLi1EE7ProcessE14eZCom_NodeRolej @1023
    _ZN16ZCom_InterpolateIiLi1EE8getValueEh @1024
    _ZN16ZCom_InterpolateIiLi1EE8packDataEP14ZCom_BitStream @1025
    _ZN16ZCom_InterpolateIiLi1EE8peekDataEv @1026
    _ZN16ZCom_InterpolateIiLi1EE8setValueEPi @1027
    _ZN16ZCom_InterpolateIiLi1EE8setValueEhi @1028
    _ZN16ZCom_InterpolateIiLi1EE9setRecValEhi @1029
    _ZN16ZCom_InterpolateIiLi1EEC1EPiP22ZCom_RSetupInterpolateIiE @1030
    _ZN16ZCom_InterpolateIiLi1EEC1EPihhhiS1_hssf @1031
    _ZN16ZCom_InterpolateIiLi1EEC2EPiP22ZCom_RSetupInterpolateIiE @1032
    _ZN16ZCom_InterpolateIiLi1EEC2EPihhhiS1_hssf @1033
    _ZN16ZCom_InterpolateIiLi1EED0Ev @1034
    _ZN16ZCom_InterpolateIiLi1EED1Ev @1035
    _ZN16ZCom_InterpolateIiLi1EED2Ev @1036
    _ZN16ZCom_InterpolateIiLi2EE10checkStateEv @1037
    _ZN16ZCom_InterpolateIiLi2EE10unpackDataEP14ZCom_BitStreambj @1038
    _ZN16ZCom_InterpolateIiLi2EE12getRecValPtrEh @1039
    _ZN16ZCom_InterpolateIiLi2EE13clearPeekDataEv @1040
    _ZN16ZCom_InterpolateIiLi2EE7ProcessE14eZCom_NodeRolej @1041
    _ZN16ZCom_InterpolateIiLi2EE8getValueEh @1042
    _ZN16ZCom_InterpolateIiLi2EE8packDataEP14ZCom_BitStream @1043
    _ZN16ZCom_InterpolateIiLi2EE8peekDataEv @1044
    _ZN16ZCom_InterpolateIiLi2EE8setValueEPi @1045
    _ZN16ZCom_InterpolateIiLi2EE8setValueEhi @1046
    _ZN16ZCom_InterpolateIiLi2EE9setRecValEhi @1047
    _ZN16ZCom_InterpolateIiLi2EEC1EPiP22ZCom_RSetupInterpolateIiE @1048
    _ZN16ZCom_InterpolateIiLi2EEC1EPihhhiS1_hssf @1049
    _ZN16ZCom_InterpolateIiLi2EEC2EPiP22ZCom_RSetupInterpolateIiE @1050
    _ZN16ZCom_InterpolateIiLi2EEC2EPihhhiS1_hssf @1051
    _ZN16ZCom_InterpolateIiLi2EED0Ev @1052
    _ZN16ZCom_InterpolateIiLi2EED1Ev @1053
    _ZN16ZCom_InterpolateIiLi2EED2Ev @1054
    _ZN16ZCom_InterpolateIiLi3EE10checkStateEv @1055
    _ZN16ZCom_InterpolateIiLi3EE10unpackDataEP14ZCom_BitStreambj @1056
    _ZN16ZCom_InterpolateIiLi3EE12getRecValPtrEh @1057
    _ZN16ZCom_InterpolateIiLi3EE13clearPeekDataEv @1058
    _ZN16ZCom_InterpolateIiLi3EE7ProcessE14eZCom_NodeRolej @1059
    _ZN16ZCom_InterpolateIiLi3EE8getValueEh @1060
    _ZN16ZCom_InterpolateIiLi3EE8packDataEP14ZCom_BitStream @1061
    _ZN16ZCom_InterpolateIiLi3EE8peekDataEv @1062
    _ZN16ZCom_InterpolateIiLi3EE8setValueEPi @1063
    _ZN16ZCom_InterpolateIiLi3EE8setValueEhi @1064
    _ZN16ZCom_InterpolateIiLi3EE9setRecValEhi @1065
    _ZN16ZCom_InterpolateIiLi3EEC1EPiP22ZCom_RSetupInterpolateIiE @1066
    _ZN16ZCom_InterpolateIiLi3EEC1EPihhhiS1_hssf @1067
    _ZN16ZCom_InterpolateIiLi3EEC2EPiP22ZCom_RSetupInterpolateIiE @1068
    _ZN16ZCom_InterpolateIiLi3EEC2EPihhhiS1_hssf @1069
    _ZN16ZCom_InterpolateIiLi3EED0Ev @1070
    _ZN16ZCom_InterpolateIiLi3EED1Ev @1071
    _ZN16ZCom_InterpolateIiLi3EED2Ev @1072
    _ZN16ZCom_InterpolateIiLi4EE10checkStateEv @1073
    _ZN16ZCom_InterpolateIiLi4EE10unpackDataEP14ZCom_BitStreambj @1074
    _ZN16ZCom_InterpolateIiLi4EE12getRecValPtrEh @1075
    _ZN16ZCom_InterpolateIiLi4EE13clearPeekDataEv @1076
    _ZN16ZCom_InterpolateIiLi4EE7ProcessE14eZCom_NodeRolej @1077
    _ZN16ZCom_InterpolateIiLi4EE8getValueEh @1078
    _ZN16ZCom_InterpolateIiLi4EE8packDataEP14ZCom_BitStream @1079
    _ZN16ZCom_InterpolateIiLi4EE8peekDataEv @1080
    _ZN16ZCom_InterpolateIiLi4EE8setValueEPi @1081
    _ZN16ZCom_InterpolateIiLi4EE8setValueEhi @1082
    _ZN16ZCom_InterpolateIiLi4EE9setRecValEhi @1083
    _ZN16ZCom_InterpolateIiLi4EEC1EPiP22ZCom_RSetupInterpolateIiE @1084
    _ZN16ZCom_InterpolateIiLi4EEC1EPihhhiS1_hssf @1085
    _ZN16ZCom_InterpolateIiLi4EEC2EPiP22ZCom_RSetupInterpolateIiE @1086
    _ZN16ZCom_InterpolateIiLi4EEC2EPihhhiS1_hssf @1087
    _ZN16ZCom_InterpolateIiLi4EED0Ev @1088
    _ZN16ZCom_InterpolateIiLi4EED1Ev @1089
    _ZN16ZCom_InterpolateIiLi4EED2Ev @1090
    _ZN16ZCom_InterpolateIiLi5EE10checkStateEv @1091
    _ZN16ZCom_InterpolateIiLi5EE10unpackDataEP14ZCom_BitStreambj @1092
    _ZN16ZCom_InterpolateIiLi5EE12getRecValPtrEh @1093
    _ZN16ZCom_InterpolateIiLi5EE13clearPeekDataEv @1094
    _ZN16ZCom_InterpolateIiLi5EE7ProcessE14eZCom_NodeRolej @1095
    _ZN16ZCom_InterpolateIiLi5EE8getValueEh @1096
    _ZN16ZCom_InterpolateIiLi5EE8packDataEP14ZCom_BitStream @1097
    _ZN16ZCom_InterpolateIiLi5EE8peekDataEv @1098
    _ZN16ZCom_InterpolateIiLi5EE8setValueEPi @1099
    _ZN16ZCom_InterpolateIiLi5EE8setValueEhi @1100
    _ZN16ZCom_InterpolateIiLi5EE9setRecValEhi @1101
    _ZN16ZCom_InterpolateIiLi5EEC1EPiP22ZCom_RSetupInterpolateIiE @1102
    _ZN16ZCom_InterpolateIiLi5EEC1EPihhhiS1_hssf @1103
    _ZN16ZCom_InterpolateIiLi5EEC2EPiP22ZCom_RSetupInterpolateIiE @1104
    _ZN16ZCom_InterpolateIiLi5EEC2EPihhhiS1_hssf @1105
    _ZN16ZCom_InterpolateIiLi5EED0Ev @1106
    _ZN16ZCom_InterpolateIiLi5EED1Ev @1107
    _ZN16ZCom_InterpolateIiLi5EED2Ev @1108
    _ZN16ZCom_InterpolateIiLi6EE10checkStateEv @1109
    _ZN16ZCom_InterpolateIiLi6EE10unpackDataEP14ZCom_BitStreambj @1110
    _ZN16ZCom_InterpolateIiLi6EE12getRecValPtrEh @1111
    _ZN16ZCom_InterpolateIiLi6EE13clearPeekDataEv @1112
    _ZN16ZCom_InterpolateIiLi6EE7ProcessE14eZCom_NodeRolej @1113
    _ZN16ZCom_InterpolateIiLi6EE8getValueEh @1114
    _ZN16ZCom_InterpolateIiLi6EE8packDataEP14ZCom_BitStream @1115
    _ZN16ZCom_InterpolateIiLi6EE8peekDataEv @1116
    _ZN16ZCom_InterpolateIiLi6EE8setValueEPi @1117
    _ZN16ZCom_InterpolateIiLi6EE8setValueEhi @1118
    _ZN16ZCom_InterpolateIiLi6EE9setRecValEhi @1119
    _ZN16ZCom_InterpolateIiLi6EEC1EPiP22ZCom_RSetupInterpolateIiE @1120
    _ZN16ZCom_InterpolateIiLi6EEC1EPihhhiS1_hssf @1121
    _ZN16ZCom_InterpolateIiLi6EEC2EPiP22ZCom_RSetupInterpolateIiE @1122
    _ZN16ZCom_InterpolateIiLi6EEC2EPihhhiS1_hssf @1123
    _ZN16ZCom_InterpolateIiLi6EED0Ev @1124
    _ZN16ZCom_InterpolateIiLi6EED1Ev @1125
    _ZN16ZCom_InterpolateIiLi6EED2Ev @1126
    _ZN16ZCom_InterpolateIiLi7EE10checkStateEv @1127
    _ZN16ZCom_InterpolateIiLi7EE10unpackDataEP14ZCom_BitStreambj @1128
    _ZN16ZCom_InterpolateIiLi7EE12getRecValPtrEh @1129
    _ZN16ZCom_InterpolateIiLi7EE13clearPeekDataEv @1130
    _ZN16ZCom_InterpolateIiLi7EE7ProcessE14eZCom_NodeRolej @1131
    _ZN16ZCom_InterpolateIiLi7EE8getValueEh @1132
    _ZN16ZCom_InterpolateIiLi7EE8packDataEP14ZCom_BitStream @1133
    _ZN16ZCom_InterpolateIiLi7EE8peekDataEv @1134
    _ZN16ZCom_InterpolateIiLi7EE8setValueEPi @1135
    _ZN16ZCom_InterpolateIiLi7EE8setValueEhi @1136
    _ZN16ZCom_InterpolateIiLi7EE9setRecValEhi @1137
    _ZN16ZCom_InterpolateIiLi7EEC1EPiP22ZCom_RSetupInterpolateIiE @1138
    _ZN16ZCom_InterpolateIiLi7EEC1EPihhhiS1_hssf @1139
    _ZN16ZCom_InterpolateIiLi7EEC2EPiP22ZCom_RSetupInterpolateIiE @1140
    _ZN16ZCom_InterpolateIiLi7EEC2EPihhhiS1_hssf @1141
    _ZN16ZCom_InterpolateIiLi7EED0Ev @1142
    _ZN16ZCom_InterpolateIiLi7EED1Ev @1143
    _ZN16ZCom_InterpolateIiLi7EED2Ev @1144
    _ZN16ZCom_InterpolateIiLi8EE10checkStateEv @1145
    _ZN16ZCom_InterpolateIiLi8EE10unpackDataEP14ZCom_BitStreambj @1146
    _ZN16ZCom_InterpolateIiLi8EE12getRecValPtrEh @1147
    _ZN16ZCom_InterpolateIiLi8EE13clearPeekDataEv @1148
    _ZN16ZCom_InterpolateIiLi8EE7ProcessE14eZCom_NodeRolej @1149
    _ZN16ZCom_InterpolateIiLi8EE8getValueEh @1150
    _ZN16ZCom_InterpolateIiLi8EE8packDataEP14ZCom_BitStream @1151
    _ZN16ZCom_InterpolateIiLi8EE8peekDataEv @1152
    _ZN16ZCom_InterpolateIiLi8EE8setValueEPi @1153
    _ZN16ZCom_InterpolateIiLi8EE8setValueEhi @1154
    _ZN16ZCom_InterpolateIiLi8EE9setRecValEhi @1155
    _ZN16ZCom_InterpolateIiLi8EEC1EPiP22ZCom_RSetupInterpolateIiE @1156
    _ZN16ZCom_InterpolateIiLi8EEC1EPihhhiS1_hssf @1157
    _ZN16ZCom_InterpolateIiLi8EEC2EPiP22ZCom_RSetupInterpolateIiE @1158
    _ZN16ZCom_InterpolateIiLi8EEC2EPihhhiS1_hssf @1159
    _ZN16ZCom_InterpolateIiLi8EED0Ev @1160
    _ZN16ZCom_InterpolateIiLi8EED1Ev @1161
    _ZN16ZCom_InterpolateIiLi8EED2Ev @1162
    _ZN16ZCom_InterpolateIiLi9EE10checkStateEv @1163
    _ZN16ZCom_InterpolateIiLi9EE10unpackDataEP14ZCom_BitStreambj @1164
    _ZN16ZCom_InterpolateIiLi9EE12getRecValPtrEh @1165
    _ZN16ZCom_InterpolateIiLi9EE13clearPeekDataEv @1166
    _ZN16ZCom_InterpolateIiLi9EE7ProcessE14eZCom_NodeRolej @1167
    _ZN16ZCom_InterpolateIiLi9EE8getValueEh @1168
    _ZN16ZCom_InterpolateIiLi9EE8packDataEP14ZCom_BitStream @1169
    _ZN16ZCom_InterpolateIiLi9EE8peekDataEv @1170
    _ZN16ZCom_InterpolateIiLi9EE8setValueEPi @1171
    _ZN16ZCom_InterpolateIiLi9EE8setValueEhi @1172
    _ZN16ZCom_InterpolateIiLi9EE9setRecValEhi @1173
    _ZN16ZCom_InterpolateIiLi9EEC1EPiP22ZCom_RSetupInterpolateIiE @1174
    _ZN16ZCom_InterpolateIiLi9EEC1EPihhhiS1_hssf @1175
    _ZN16ZCom_InterpolateIiLi9EEC2EPiP22ZCom_RSetupInterpolateIiE @1176
    _ZN16ZCom_InterpolateIiLi9EEC2EPihhhiS1_hssf @1177
    _ZN16ZCom_InterpolateIiLi9EED0Ev @1178
    _ZN16ZCom_InterpolateIiLi9EED1Ev @1179
    _ZN16ZCom_InterpolateIiLi9EED2Ev @1180
    _ZN16ZCom_InterpolateIjLi10EE10checkStateEv @1181
    _ZN16ZCom_InterpolateIjLi10EE10unpackDataEP14ZCom_BitStreambj @1182
    _ZN16ZCom_InterpolateIjLi10EE12getRecValPtrEh @1183
    _ZN16ZCom_InterpolateIjLi10EE13clearPeekDataEv @1184
    _ZN16ZCom_InterpolateIjLi10EE7ProcessE14eZCom_NodeRolej @1185
    _ZN16ZCom_InterpolateIjLi10EE8getValueEh @1186
    _ZN16ZCom_InterpolateIjLi10EE8packDataEP14ZCom_BitStream @1187
    _ZN16ZCom_InterpolateIjLi10EE8peekDataEv @1188
    _ZN16ZCom_InterpolateIjLi10EE8setValueEPj @1189
    _ZN16ZCom_InterpolateIjLi10EE8setValueEhj @1190
    _ZN16ZCom_InterpolateIjLi10EE9setRecValEhj @1191
    _ZN16ZCom_InterpolateIjLi10EEC1EPjP22ZCom_RSetupInterpolateIjE @1192
    _ZN16ZCom_InterpolateIjLi10EEC1EPjhhhjS1_hssf @1193
    _ZN16ZCom_InterpolateIjLi10EEC2EPjP22ZCom_RSetupInterpolateIjE @1194
    _ZN16ZCom_InterpolateIjLi10EEC2EPjhhhjS1_hssf @1195
    _ZN16ZCom_InterpolateIjLi10EED0Ev @1196
    _ZN16ZCom_InterpolateIjLi10EED1Ev @1197
    _ZN16ZCom_InterpolateIjLi10EED2Ev @1198
    _ZN16ZCom_InterpolateIjLi11EE10checkStateEv @1199
    _ZN16ZCom_InterpolateIjLi11EE10unpackDataEP14ZCom_BitStreambj @1200
    _ZN16ZCom_InterpolateIjLi11EE12getRecValPtrEh @1201
    _ZN16ZCom_InterpolateIjLi11EE13clearPeekDataEv @1202
    _ZN16ZCom_InterpolateIjLi11EE7ProcessE14eZCom_NodeRolej @1203
    _ZN16ZCom_InterpolateIjLi11EE8getValueEh @1204
    _ZN16ZCom_InterpolateIjLi11EE8packDataEP14ZCom_BitStream @1205
    _ZN16ZCom_InterpolateIjLi11EE8peekDataEv @1206
    _ZN16ZCom_InterpolateIjLi11EE8setValueEPj @1207
    _ZN16ZCom_InterpolateIjLi11EE8setValueEhj @1208
    _ZN16ZCom_InterpolateIjLi11EE9setRecValEhj @1209
    _ZN16ZCom_InterpolateIjLi11EEC1EPjP22ZCom_RSetupInterpolateIjE @1210
    _ZN16ZCom_InterpolateIjLi11EEC1EPjhhhjS1_hssf @1211
    _ZN16ZCom_InterpolateIjLi11EEC2EPjP22ZCom_RSetupInterpolateIjE @1212
    _ZN16ZCom_InterpolateIjLi11EEC2EPjhhhjS1_hssf @1213
    _ZN16ZCom_InterpolateIjLi11EED0Ev @1214
    _ZN16ZCom_InterpolateIjLi11EED1Ev @1215
    _ZN16ZCom_InterpolateIjLi11EED2Ev @1216
    _ZN16ZCom_InterpolateIjLi12EE10checkStateEv @1217
    _ZN16ZCom_InterpolateIjLi12EE10unpackDataEP14ZCom_BitStreambj @1218
    _ZN16ZCom_InterpolateIjLi12EE12getRecValPtrEh @1219
    _ZN16ZCom_InterpolateIjLi12EE13clearPeekDataEv @1220
    _ZN16ZCom_InterpolateIjLi12EE7ProcessE14eZCom_NodeRolej @1221
    _ZN16ZCom_InterpolateIjLi12EE8getValueEh @1222
    _ZN16ZCom_InterpolateIjLi12EE8packDataEP14ZCom_BitStream @1223
    _ZN16ZCom_InterpolateIjLi12EE8peekDataEv @1224
    _ZN16ZCom_InterpolateIjLi12EE8setValueEPj @1225
    _ZN16ZCom_InterpolateIjLi12EE8setValueEhj @1226
    _ZN16ZCom_InterpolateIjLi12EE9setRecValEhj @1227
    _ZN16ZCom_InterpolateIjLi12EEC1EPjP22ZCom_RSetupInterpolateIjE @1228
    _ZN16ZCom_InterpolateIjLi12EEC1EPjhhhjS1_hssf @1229
    _ZN16ZCom_InterpolateIjLi12EEC2EPjP22ZCom_RSetupInterpolateIjE @1230
    _ZN16ZCom_InterpolateIjLi12EEC2EPjhhhjS1_hssf @1231
    _ZN16ZCom_InterpolateIjLi12EED0Ev @1232
    _ZN16ZCom_InterpolateIjLi12EED1Ev @1233
    _ZN16ZCom_InterpolateIjLi12EED2Ev @1234
    _ZN16ZCom_InterpolateIjLi1EE10checkStateEv @1235
    _ZN16ZCom_InterpolateIjLi1EE10unpackDataEP14ZCom_BitStreambj @1236
    _ZN16ZCom_InterpolateIjLi1EE12getRecValPtrEh @1237
    _ZN16ZCom_InterpolateIjLi1EE13clearPeekDataEv @1238
    _ZN16ZCom_InterpolateIjLi1EE7ProcessE14eZCom_NodeRolej @1239
    _ZN16ZCom_InterpolateIjLi1EE8getValueEh @1240
    _ZN16ZCom_InterpolateIjLi1EE8packDataEP14ZCom_BitStream @1241
    _ZN16ZCom_InterpolateIjLi1EE8peekDataEv @1242
    _ZN16ZCom_InterpolateIjLi1EE8setValueEPj @1243
    _ZN16ZCom_InterpolateIjLi1EE8setValueEhj @1244
    _ZN16ZCom_InterpolateIjLi1EE9setRecValEhj @1245
    _ZN16ZCom_InterpolateIjLi1EEC1EPjP22ZCom_RSetupInterpolateIjE @1246
    _ZN16ZCom_InterpolateIjLi1EEC1EPjhhhjS1_hssf @1247
    _ZN16ZCom_InterpolateIjLi1EEC2EPjP22ZCom_RSetupInterpolateIjE @1248
    _ZN16ZCom_InterpolateIjLi1EEC2EPjhhhjS1_hssf @1249
    _ZN16ZCom_InterpolateIjLi1EED0Ev @1250
    _ZN16ZCom_InterpolateIjLi1EED1Ev @1251
    _ZN16ZCom_InterpolateIjLi1EED2Ev @1252
    _ZN16ZCom_InterpolateIjLi2EE10checkStateEv @1253
    _ZN16ZCom_InterpolateIjLi2EE10unpackDataEP14ZCom_BitStreambj @1254
    _ZN16ZCom_InterpolateIjLi2EE12getRecValPtrEh @1255
    _ZN16ZCom_InterpolateIjLi2EE13clearPeekDataEv @1256
    _ZN16ZCom_InterpolateIjLi2EE7ProcessE14eZCom_NodeRolej @1257
    _ZN16ZCom_InterpolateIjLi2EE8getValueEh @1258
    _ZN16ZCom_InterpolateIjLi2EE8packDataEP14ZCom_BitStream @1259
    _ZN16ZCom_InterpolateIjLi2EE8peekDataEv @1260
    _ZN16ZCom_InterpolateIjLi2EE8setValueEPj @1261
    _ZN16ZCom_InterpolateIjLi2EE8setValueEhj @1262
    _ZN16ZCom_InterpolateIjLi2EE9setRecValEhj @1263
    _ZN16ZCom_InterpolateIjLi2EEC1EPjP22ZCom_RSetupInterpolateIjE @1264
    _ZN16ZCom_InterpolateIjLi2EEC1EPjhhhjS1_hssf @1265
    _ZN16ZCom_InterpolateIjLi2EEC2EPjP22ZCom_RSetupInterpolateIjE @1266
    _ZN16ZCom_InterpolateIjLi2EEC2EPjhhhjS1_hssf @1267
    _ZN16ZCom_InterpolateIjLi2EED0Ev @1268
    _ZN16ZCom_InterpolateIjLi2EED1Ev @1269
    _ZN16ZCom_InterpolateIjLi2EED2Ev @1270
    _ZN16ZCom_InterpolateIjLi3EE10checkStateEv @1271
    _ZN16ZCom_InterpolateIjLi3EE10unpackDataEP14ZCom_BitStreambj @1272
    _ZN16ZCom_InterpolateIjLi3EE12getRecValPtrEh @1273
    _ZN16ZCom_InterpolateIjLi3EE13clearPeekDataEv @1274
    _ZN16ZCom_InterpolateIjLi3EE7ProcessE14eZCom_NodeRolej @1275
    _ZN16ZCom_InterpolateIjLi3EE8getValueEh @1276
    _ZN16ZCom_InterpolateIjLi3EE8packDataEP14ZCom_BitStream @1277
    _ZN16ZCom_InterpolateIjLi3EE8peekDataEv @1278
    _ZN16ZCom_InterpolateIjLi3EE8setValueEPj @1279
    _ZN16ZCom_InterpolateIjLi3EE8setValueEhj @1280
    _ZN16ZCom_InterpolateIjLi3EE9setRecValEhj @1281
    _ZN16ZCom_InterpolateIjLi3EEC1EPjP22ZCom_RSetupInterpolateIjE @1282
    _ZN16ZCom_InterpolateIjLi3EEC1EPjhhhjS1_hssf @1283
    _ZN16ZCom_InterpolateIjLi3EEC2EPjP22ZCom_RSetupInterpolateIjE @1284
    _ZN16ZCom_InterpolateIjLi3EEC2EPjhhhjS1_hssf @1285
    _ZN16ZCom_InterpolateIjLi3EED0Ev @1286
    _ZN16ZCom_InterpolateIjLi3EED1Ev @1287
    _ZN16ZCom_InterpolateIjLi3EED2Ev @1288
    _ZN16ZCom_InterpolateIjLi4EE10checkStateEv @1289
    _ZN16ZCom_InterpolateIjLi4EE10unpackDataEP14ZCom_BitStreambj @1290
    _ZN16ZCom_InterpolateIjLi4EE12getRecValPtrEh @1291
    _ZN16ZCom_InterpolateIjLi4EE13clearPeekDataEv @1292
    _ZN16ZCom_InterpolateIjLi4EE7ProcessE14eZCom_NodeRolej @1293
    _ZN16ZCom_InterpolateIjLi4EE8getValueEh @1294
    _ZN16ZCom_InterpolateIjLi4EE8packDataEP14ZCom_BitStream @1295
    _ZN16ZCom_InterpolateIjLi4EE8peekDataEv @1296
    _ZN16ZCom_InterpolateIjLi4EE8setValueEPj @1297
    _ZN16ZCom_InterpolateIjLi4EE8setValueEhj @1298
    _ZN16ZCom_InterpolateIjLi4EE9setRecValEhj @1299
    _ZN16ZCom_InterpolateIjLi4EEC1EPjP22ZCom_RSetupInterpolateIjE @1300
    _ZN16ZCom_InterpolateIjLi4EEC1EPjhhhjS1_hssf @1301
    _ZN16ZCom_InterpolateIjLi4EEC2EPjP22ZCom_RSetupInterpolateIjE @1302
    _ZN16ZCom_InterpolateIjLi4EEC2EPjhhhjS1_hssf @1303
    _ZN16ZCom_InterpolateIjLi4EED0Ev @1304
    _ZN16ZCom_InterpolateIjLi4EED1Ev @1305
    _ZN16ZCom_InterpolateIjLi4EED2Ev @1306
    _ZN16ZCom_InterpolateIjLi5EE10checkStateEv @1307
    _ZN16ZCom_InterpolateIjLi5EE10unpackDataEP14ZCom_BitStreambj @1308
    _ZN16ZCom_InterpolateIjLi5EE12getRecValPtrEh @1309
    _ZN16ZCom_InterpolateIjLi5EE13clearPeekDataEv @1310
    _ZN16ZCom_InterpolateIjLi5EE7ProcessE14eZCom_NodeRolej @1311
    _ZN16ZCom_InterpolateIjLi5EE8getValueEh @1312
    _ZN16ZCom_InterpolateIjLi5EE8packDataEP14ZCom_BitStream @1313
    _ZN16ZCom_InterpolateIjLi5EE8peekDataEv @1314
    _ZN16ZCom_InterpolateIjLi5EE8setValueEPj @1315
    _ZN16ZCom_InterpolateIjLi5EE8setValueEhj @1316
    _ZN16ZCom_InterpolateIjLi5EE9setRecValEhj @1317
    _ZN16ZCom_InterpolateIjLi5EEC1EPjP22ZCom_RSetupInterpolateIjE @1318
    _ZN16ZCom_InterpolateIjLi5EEC1EPjhhhjS1_hssf @1319
    _ZN16ZCom_InterpolateIjLi5EEC2EPjP22ZCom_RSetupInterpolateIjE @1320
    _ZN16ZCom_InterpolateIjLi5EEC2EPjhhhjS1_hssf @1321
    _ZN16ZCom_InterpolateIjLi5EED0Ev @1322
    _ZN16ZCom_InterpolateIjLi5EED1Ev @1323
    _ZN16ZCom_InterpolateIjLi5EED2Ev @1324
    _ZN16ZCom_InterpolateIjLi6EE10checkStateEv @1325
    _ZN16ZCom_InterpolateIjLi6EE10unpackDataEP14ZCom_BitStreambj @1326
    _ZN16ZCom_InterpolateIjLi6EE12getRecValPtrEh @1327
    _ZN16ZCom_InterpolateIjLi6EE13clearPeekDataEv @1328
    _ZN16ZCom_InterpolateIjLi6EE7ProcessE14eZCom_NodeRolej @1329
    _ZN16ZCom_InterpolateIjLi6EE8getValueEh @1330
    _ZN16ZCom_InterpolateIjLi6EE8packDataEP14ZCom_BitStream @1331
    _ZN16ZCom_InterpolateIjLi6EE8peekDataEv @1332
    _ZN16ZCom_InterpolateIjLi6EE8setValueEPj @1333
    _ZN16ZCom_InterpolateIjLi6EE8setValueEhj @1334
    _ZN16ZCom_InterpolateIjLi6EE9setRecValEhj @1335
    _ZN16ZCom_InterpolateIjLi6EEC1EPjP22ZCom_RSetupInterpolateIjE @1336
    _ZN16ZCom_InterpolateIjLi6EEC1EPjhhhjS1_hssf @1337
    _ZN16ZCom_InterpolateIjLi6EEC2EPjP22ZCom_RSetupInterpolateIjE @1338
    _ZN16ZCom_InterpolateIjLi6EEC2EPjhhhjS1_hssf @1339
    _ZN16ZCom_InterpolateIjLi6EED0Ev @1340
    _ZN16ZCom_InterpolateIjLi6EED1Ev @1341
    _ZN16ZCom_InterpolateIjLi6EED2Ev @1342
    _ZN16ZCom_InterpolateIjLi7EE10checkStateEv @1343
    _ZN16ZCom_InterpolateIjLi7EE10unpackDataEP14ZCom_BitStreambj @1344
    _ZN16ZCom_InterpolateIjLi7EE12getRecValPtrEh @1345
    _ZN16ZCom_InterpolateIjLi7EE13clearPeekDataEv @1346
    _ZN16ZCom_InterpolateIjLi7EE7ProcessE14eZCom_NodeRolej @1347
    _ZN16ZCom_InterpolateIjLi7EE8getValueEh @1348
    _ZN16ZCom_InterpolateIjLi7EE8packDataEP14ZCom_BitStream @1349
    _ZN16ZCom_InterpolateIjLi7EE8peekDataEv @1350
    _ZN16ZCom_InterpolateIjLi7EE8setValueEPj @1351
    _ZN16ZCom_InterpolateIjLi7EE8setValueEhj @1352
    _ZN16ZCom_InterpolateIjLi7EE9setRecValEhj @1353
    _ZN16ZCom_InterpolateIjLi7EEC1EPjP22ZCom_RSetupInterpolateIjE @1354
    _ZN16ZCom_InterpolateIjLi7EEC1EPjhhhjS1_hssf @1355
    _ZN16ZCom_InterpolateIjLi7EEC2EPjP22ZCom_RSetupInterpolateIjE @1356
    _ZN16ZCom_InterpolateIjLi7EEC2EPjhhhjS1_hssf @1357
    _ZN16ZCom_InterpolateIjLi7EED0Ev @1358
    _ZN16ZCom_InterpolateIjLi7EED1Ev @1359
    _ZN16ZCom_InterpolateIjLi7EED2Ev @1360
    _ZN16ZCom_InterpolateIjLi8EE10checkStateEv @1361
    _ZN16ZCom_InterpolateIjLi8EE10unpackDataEP14ZCom_BitStreambj @1362
    _ZN16ZCom_InterpolateIjLi8EE12getRecValPtrEh @1363
    _ZN16ZCom_InterpolateIjLi8EE13clearPeekDataEv @1364
    _ZN16ZCom_InterpolateIjLi8EE7ProcessE14eZCom_NodeRolej @1365
    _ZN16ZCom_InterpolateIjLi8EE8getValueEh @1366
    _ZN16ZCom_InterpolateIjLi8EE8packDataEP14ZCom_BitStream @1367
    _ZN16ZCom_InterpolateIjLi8EE8peekDataEv @1368
    _ZN16ZCom_InterpolateIjLi8EE8setValueEPj @1369
    _ZN16ZCom_InterpolateIjLi8EE8setValueEhj @1370
    _ZN16ZCom_InterpolateIjLi8EE9setRecValEhj @1371
    _ZN16ZCom_InterpolateIjLi8EEC1EPjP22ZCom_RSetupInterpolateIjE @1372
    _ZN16ZCom_InterpolateIjLi8EEC1EPjhhhjS1_hssf @1373
    _ZN16ZCom_InterpolateIjLi8EEC2EPjP22ZCom_RSetupInterpolateIjE @1374
    _ZN16ZCom_InterpolateIjLi8EEC2EPjhhhjS1_hssf @1375
    _ZN16ZCom_InterpolateIjLi8EED0Ev @1376
    _ZN16ZCom_InterpolateIjLi8EED1Ev @1377
    _ZN16ZCom_InterpolateIjLi8EED2Ev @1378
    _ZN16ZCom_InterpolateIjLi9EE10checkStateEv @1379
    _ZN16ZCom_InterpolateIjLi9EE10unpackDataEP14ZCom_BitStreambj @1380
    _ZN16ZCom_InterpolateIjLi9EE12getRecValPtrEh @1381
    _ZN16ZCom_InterpolateIjLi9EE13clearPeekDataEv @1382
    _ZN16ZCom_InterpolateIjLi9EE7ProcessE14eZCom_NodeRolej @1383
    _ZN16ZCom_InterpolateIjLi9EE8getValueEh @1384
    _ZN16ZCom_InterpolateIjLi9EE8packDataEP14ZCom_BitStream @1385
    _ZN16ZCom_InterpolateIjLi9EE8peekDataEv @1386
    _ZN16ZCom_InterpolateIjLi9EE8setValueEPj @1387
    _ZN16ZCom_InterpolateIjLi9EE8setValueEhj @1388
    _ZN16ZCom_InterpolateIjLi9EE9setRecValEhj @1389
    _ZN16ZCom_InterpolateIjLi9EEC1EPjP22ZCom_RSetupInterpolateIjE @1390
    _ZN16ZCom_InterpolateIjLi9EEC1EPjhhhjS1_hssf @1391
    _ZN16ZCom_InterpolateIjLi9EEC2EPjP22ZCom_RSetupInterpolateIjE @1392
    _ZN16ZCom_InterpolateIjLi9EEC2EPjhhhjS1_hssf @1393
    _ZN16ZCom_InterpolateIjLi9EED0Ev @1394
    _ZN16ZCom_InterpolateIjLi9EED1Ev @1395
    _ZN16ZCom_InterpolateIjLi9EED2Ev @1396
    _ZN17ZCom_RSetupString9DuplicateEv @1397
    _ZN18ZCom_RSetupNumeric9DuplicateEv @1398
    _ZN18ZCom_RSetupNumericC1Ehhhhss @1399
    _ZN18ZCom_RSetupNumericC2Ehhhhss @1400
    _ZN18ZCom_RSetupNumericD0Ev @1401
    _ZN18ZCom_RSetupNumericD1Ev @1402
    _ZN19ZCom_RSetupMovementIfE9DuplicateEv @1403
    _ZN19ZCom_RSetupMovementIfEC1Ehhhhss @1404
    _ZN19ZCom_RSetupMovementIfEC2Ehhhhss @1405
    _ZN19ZCom_RSetupMovementIiE9DuplicateEv @1406
    _ZN19ZCom_RSetupMovementIiEC1Ehhhhss @1407
    _ZN19ZCom_RSetupMovementIiEC2Ehhhhss @1408
    _ZN19ZCom_RSetupMovementIjE9DuplicateEv @1409
    _ZN19ZCom_RSetupMovementIjEC1Ehhhhss @1410
    _ZN19ZCom_RSetupMovementIjEC2Ehhhhss @1411
    _ZN19ZCom_Replicate_Bool10checkStateEv @1412
    _ZN19ZCom_Replicate_Bool10unpackDataEP14ZCom_BitStreambj @1413
    _ZN19ZCom_Replicate_Bool13clearPeekDataEv @1414
    _ZN19ZCom_Replicate_Bool7ProcessE14eZCom_NodeRolej @1415
    _ZN19ZCom_Replicate_Bool8packDataEP14ZCom_BitStream @1416
    _ZN19ZCom_Replicate_Bool8peekDataEv @1417
    _ZN19ZCom_Replicate_BoolC1Ebhhhss @1418
    _ZN19ZCom_Replicate_BoolC2Ebhhhss @1419
    _ZN20ZCom_Replicate_Boolp10checkStateEv @1420
    _ZN20ZCom_Replicate_Boolp10unpackDataEP14ZCom_BitStreambj @1421
    _ZN20ZCom_Replicate_Boolp13clearPeekDataEv @1422
    _ZN20ZCom_Replicate_Boolp7ProcessE14eZCom_NodeRolej @1423
    _ZN20ZCom_Replicate_Boolp8packDataEP14ZCom_BitStream @1424
    _ZN20ZCom_Replicate_Boolp8peekDataEv @1425
    _ZN20ZCom_Replicate_BoolpC1EPbhhhss @1426
    _ZN20ZCom_Replicate_BoolpC2EPbhhhss @1427
    _ZN20ZCom_ReplicatorBasicC1EP20ZCom_ReplicatorSetup @1428
    _ZN20ZCom_ReplicatorBasicC2EP20ZCom_ReplicatorSetup @1429
    _ZN20ZCom_ReplicatorBasicD0Ev @1430
    _ZN20ZCom_ReplicatorBasicD1Ev @1431
    _ZN20ZCom_ReplicatorSetup9DuplicateEv @1432
    _ZN20ZCom_ReplicatorSetupC1Ehh @1433
    _ZN20ZCom_ReplicatorSetupC1Ehhhss @1434
    _ZN20ZCom_ReplicatorSetupC2Ehh @1435
    _ZN20ZCom_ReplicatorSetupC2Ehhhss @1436
    _ZN20ZCom_ReplicatorSetupD0Ev @1437
    _ZN20ZCom_ReplicatorSetupD1Ev @1438
    _ZN20ZCom_ReplicatorSetupD2Ev @1439
    _ZN20ZCom_ReplicatorSetupdlEPv @1440
    _ZN20ZCom_ReplicatorSetupnwEj @1441
    _ZN20ZCom_ReplicatorValueIPfLi10EE7getDataEv @1442
    _ZN20ZCom_ReplicatorValueIPfLi11EE7getDataEv @1443
    _ZN20ZCom_ReplicatorValueIPfLi12EE7getDataEv @1444
    _ZN20ZCom_ReplicatorValueIPfLi1EE7getDataEv @1445
    _ZN20ZCom_ReplicatorValueIPfLi2EE7getDataEv @1446
    _ZN20ZCom_ReplicatorValueIPfLi3EE7getDataEv @1447
    _ZN20ZCom_ReplicatorValueIPfLi4EE7getDataEv @1448
    _ZN20ZCom_ReplicatorValueIPfLi5EE7getDataEv @1449
    _ZN20ZCom_ReplicatorValueIPfLi6EE7getDataEv @1450
    _ZN20ZCom_ReplicatorValueIPfLi7EE7getDataEv @1451
    _ZN20ZCom_ReplicatorValueIPfLi8EE7getDataEv @1452
    _ZN20ZCom_ReplicatorValueIPfLi9EE7getDataEv @1453
    _ZN20ZCom_ReplicatorValueIPiLi10EE7getDataEv @1454
    _ZN20ZCom_ReplicatorValueIPiLi11EE7getDataEv @1455
    _ZN20ZCom_ReplicatorValueIPiLi12EE7getDataEv @1456
    _ZN20ZCom_ReplicatorValueIPiLi1EE7getDataEv @1457
    _ZN20ZCom_ReplicatorValueIPiLi2EE7getDataEv @1458
    _ZN20ZCom_ReplicatorValueIPiLi3EE7getDataEv @1459
    _ZN20ZCom_ReplicatorValueIPiLi4EE7getDataEv @1460
    _ZN20ZCom_ReplicatorValueIPiLi5EE7getDataEv @1461
    _ZN20ZCom_ReplicatorValueIPiLi6EE7getDataEv @1462
    _ZN20ZCom_ReplicatorValueIPiLi7EE7getDataEv @1463
    _ZN20ZCom_ReplicatorValueIPiLi8EE7getDataEv @1464
    _ZN20ZCom_ReplicatorValueIPiLi9EE7getDataEv @1465
    _ZN20ZCom_ReplicatorValueIPjLi10EE7getDataEv @1466
    _ZN20ZCom_ReplicatorValueIPjLi11EE7getDataEv @1467
    _ZN20ZCom_ReplicatorValueIPjLi12EE7getDataEv @1468
    _ZN20ZCom_ReplicatorValueIPjLi1EE7getDataEv @1469
    _ZN20ZCom_ReplicatorValueIPjLi2EE7getDataEv @1470
    _ZN20ZCom_ReplicatorValueIPjLi3EE7getDataEv @1471
    _ZN20ZCom_ReplicatorValueIPjLi4EE7getDataEv @1472
    _ZN20ZCom_ReplicatorValueIPjLi5EE7getDataEv @1473
    _ZN20ZCom_ReplicatorValueIPjLi6EE7getDataEv @1474
    _ZN20ZCom_ReplicatorValueIPjLi7EE7getDataEv @1475
    _ZN20ZCom_ReplicatorValueIPjLi8EE7getDataEv @1476
    _ZN20ZCom_ReplicatorValueIPjLi9EE7getDataEv @1477
    _ZN20ZCom_ReplicatorValueIfLi10EE7getDataEv @1478
    _ZN20ZCom_ReplicatorValueIfLi11EE7getDataEv @1479
    _ZN20ZCom_ReplicatorValueIfLi12EE7getDataEv @1480
    _ZN20ZCom_ReplicatorValueIfLi1EE7getDataEv @1481
    _ZN20ZCom_ReplicatorValueIfLi2EE7getDataEv @1482
    _ZN20ZCom_ReplicatorValueIfLi3EE7getDataEv @1483
    _ZN20ZCom_ReplicatorValueIfLi4EE7getDataEv @1484
    _ZN20ZCom_ReplicatorValueIfLi5EE7getDataEv @1485
    _ZN20ZCom_ReplicatorValueIfLi6EE7getDataEv @1486
    _ZN20ZCom_ReplicatorValueIfLi7EE7getDataEv @1487
    _ZN20ZCom_ReplicatorValueIfLi8EE7getDataEv @1488
    _ZN20ZCom_ReplicatorValueIfLi9EE7getDataEv @1489
    _ZN20ZCom_ReplicatorValueIiLi10EE7getDataEv @1490
    _ZN20ZCom_ReplicatorValueIiLi11EE7getDataEv @1491
    _ZN20ZCom_ReplicatorValueIiLi12EE7getDataEv @1492
    _ZN20ZCom_ReplicatorValueIiLi1EE7getDataEv @1493
    _ZN20ZCom_ReplicatorValueIiLi2EE7getDataEv @1494
    _ZN20ZCom_ReplicatorValueIiLi3EE7getDataEv @1495
    _ZN20ZCom_ReplicatorValueIiLi4EE7getDataEv @1496
    _ZN20ZCom_ReplicatorValueIiLi5EE7getDataEv @1497
    _ZN20ZCom_ReplicatorValueIiLi6EE7getDataEv @1498
    _ZN20ZCom_ReplicatorValueIiLi7EE7getDataEv @1499
    _ZN20ZCom_ReplicatorValueIiLi8EE7getDataEv @1500
    _ZN20ZCom_ReplicatorValueIiLi9EE7getDataEv @1501
    _ZN20ZCom_ReplicatorValueIjLi10EE7getDataEv @1502
    _ZN20ZCom_ReplicatorValueIjLi11EE7getDataEv @1503
    _ZN20ZCom_ReplicatorValueIjLi12EE7getDataEv @1504
    _ZN20ZCom_ReplicatorValueIjLi1EE7getDataEv @1505
    _ZN20ZCom_ReplicatorValueIjLi2EE7getDataEv @1506
    _ZN20ZCom_ReplicatorValueIjLi3EE7getDataEv @1507
    _ZN20ZCom_ReplicatorValueIjLi4EE7getDataEv @1508
    _ZN20ZCom_ReplicatorValueIjLi5EE7getDataEv @1509
    _ZN20ZCom_ReplicatorValueIjLi6EE7getDataEv @1510
    _ZN20ZCom_ReplicatorValueIjLi7EE7getDataEv @1511
    _ZN20ZCom_ReplicatorValueIjLi8EE7getDataEv @1512
    _ZN20ZCom_ReplicatorValueIjLi9EE7getDataEv @1513
    _ZN21ZCom_ConnGroupManager11createGroupEj @1514
    _ZN21ZCom_ConnGroupManager12destroyGroupEj @1515
    _ZN21ZCom_ConnGroupManager12getGroupSizeEj @1516
    _ZN21ZCom_ConnGroupManager13addConnectionEjj @1517
    _ZN21ZCom_ConnGroupManager16checkGroupExistsEj @1518
    _ZN21ZCom_ConnGroupManager16removeConnectionEjj @1519
    _ZN21ZCom_ConnGroupManager17getNextConnectionEjRj @1520
    _ZN21ZCom_ConnGroupManager18getFirstConnectionEjRj @1521
    _ZN21ZCom_ConnGroupManager5ClearEv @1522
    _ZN21ZCom_ConnGroupManagerC1Ev @1523
    _ZN21ZCom_ConnGroupManagerC2Ev @1524
    _ZN21ZCom_ConnGroupManagerD1Ev @1525
    _ZN21ZCom_ConnGroupManagerD2Ev @1526
    _ZN22ZCom_RSetupInterpolateIfE9DuplicateEv @1527
    _ZN22ZCom_RSetupInterpolateIfEC1Ehhhfhssf @1528
    _ZN22ZCom_RSetupInterpolateIiE9DuplicateEv @1529
    _ZN22ZCom_RSetupInterpolateIiEC1Ehhhihssf @1530
    _ZN22ZCom_RSetupInterpolateIjE9DuplicateEv @1531
    _ZN22ZCom_RSetupInterpolateIjEC1Ehhhjhssf @1532
    _ZN22ZCom_Replicate_NumericIPfLi10EE10checkStateEv @1533
    _ZN22ZCom_Replicate_NumericIPfLi10EE10unpackDataEP14ZCom_BitStreambj @1534
    _ZN22ZCom_Replicate_NumericIPfLi10EE13clearPeekDataEv @1535
    _ZN22ZCom_Replicate_NumericIPfLi10EE7ProcessE14eZCom_NodeRolej @1536
    _ZN22ZCom_Replicate_NumericIPfLi10EE8getValueEh @1537
    _ZN22ZCom_Replicate_NumericIPfLi10EE8getValueEv @1538
    _ZN22ZCom_Replicate_NumericIPfLi10EE8packDataEP14ZCom_BitStream @1539
    _ZN22ZCom_Replicate_NumericIPfLi10EE8peekDataEv @1540
    _ZN22ZCom_Replicate_NumericIPfLi10EE8setValueES0_ @1541
    _ZN22ZCom_Replicate_NumericIPfLi10EE8setValueEhf @1542
    _ZN22ZCom_Replicate_NumericIPfLi10EEC1ES0_P18ZCom_RSetupNumeric @1543
    _ZN22ZCom_Replicate_NumericIPfLi10EEC1ES0_hhhhss @1544
    _ZN22ZCom_Replicate_NumericIPfLi10EEC2ES0_P18ZCom_RSetupNumeric @1545
    _ZN22ZCom_Replicate_NumericIPfLi10EEC2ES0_hhhhss @1546
    _ZN22ZCom_Replicate_NumericIPfLi10EED0Ev @1547
    _ZN22ZCom_Replicate_NumericIPfLi10EED1Ev @1548
    _ZN22ZCom_Replicate_NumericIPfLi10EED2Ev @1549
    _ZN22ZCom_Replicate_NumericIPfLi11EE10checkStateEv @1550
    _ZN22ZCom_Replicate_NumericIPfLi11EE10unpackDataEP14ZCom_BitStreambj @1551
    _ZN22ZCom_Replicate_NumericIPfLi11EE13clearPeekDataEv @1552
    _ZN22ZCom_Replicate_NumericIPfLi11EE7ProcessE14eZCom_NodeRolej @1553
    _ZN22ZCom_Replicate_NumericIPfLi11EE8getValueEh @1554
    _ZN22ZCom_Replicate_NumericIPfLi11EE8getValueEv @1555
    _ZN22ZCom_Replicate_NumericIPfLi11EE8packDataEP14ZCom_BitStream @1556
    _ZN22ZCom_Replicate_NumericIPfLi11EE8peekDataEv @1557
    _ZN22ZCom_Replicate_NumericIPfLi11EE8setValueES0_ @1558
    _ZN22ZCom_Replicate_NumericIPfLi11EE8setValueEhf @1559
    _ZN22ZCom_Replicate_NumericIPfLi11EEC1ES0_P18ZCom_RSetupNumeric @1560
    _ZN22ZCom_Replicate_NumericIPfLi11EEC1ES0_hhhhss @1561
    _ZN22ZCom_Replicate_NumericIPfLi11EEC2ES0_P18ZCom_RSetupNumeric @1562
    _ZN22ZCom_Replicate_NumericIPfLi11EEC2ES0_hhhhss @1563
    _ZN22ZCom_Replicate_NumericIPfLi11EED0Ev @1564
    _ZN22ZCom_Replicate_NumericIPfLi11EED1Ev @1565
    _ZN22ZCom_Replicate_NumericIPfLi11EED2Ev @1566
    _ZN22ZCom_Replicate_NumericIPfLi12EE10checkStateEv @1567
    _ZN22ZCom_Replicate_NumericIPfLi12EE10unpackDataEP14ZCom_BitStreambj @1568
    _ZN22ZCom_Replicate_NumericIPfLi12EE13clearPeekDataEv @1569
    _ZN22ZCom_Replicate_NumericIPfLi12EE7ProcessE14eZCom_NodeRolej @1570
    _ZN22ZCom_Replicate_NumericIPfLi12EE8getValueEh @1571
    _ZN22ZCom_Replicate_NumericIPfLi12EE8getValueEv @1572
    _ZN22ZCom_Replicate_NumericIPfLi12EE8packDataEP14ZCom_BitStream @1573
    _ZN22ZCom_Replicate_NumericIPfLi12EE8peekDataEv @1574
    _ZN22ZCom_Replicate_NumericIPfLi12EE8setValueES0_ @1575
    _ZN22ZCom_Replicate_NumericIPfLi12EE8setValueEhf @1576
    _ZN22ZCom_Replicate_NumericIPfLi12EEC1ES0_P18ZCom_RSetupNumeric @1577
    _ZN22ZCom_Replicate_NumericIPfLi12EEC1ES0_hhhhss @1578
    _ZN22ZCom_Replicate_NumericIPfLi12EEC2ES0_P18ZCom_RSetupNumeric @1579
    _ZN22ZCom_Replicate_NumericIPfLi12EEC2ES0_hhhhss @1580
    _ZN22ZCom_Replicate_NumericIPfLi12EED0Ev @1581
    _ZN22ZCom_Replicate_NumericIPfLi12EED1Ev @1582
    _ZN22ZCom_Replicate_NumericIPfLi12EED2Ev @1583
    _ZN22ZCom_Replicate_NumericIPfLi1EE10checkStateEv @1584
    _ZN22ZCom_Replicate_NumericIPfLi1EE10unpackDataEP14ZCom_BitStreambj @1585
    _ZN22ZCom_Replicate_NumericIPfLi1EE13clearPeekDataEv @1586
    _ZN22ZCom_Replicate_NumericIPfLi1EE7ProcessE14eZCom_NodeRolej @1587
    _ZN22ZCom_Replicate_NumericIPfLi1EE8getValueEh @1588
    _ZN22ZCom_Replicate_NumericIPfLi1EE8getValueEv @1589
    _ZN22ZCom_Replicate_NumericIPfLi1EE8packDataEP14ZCom_BitStream @1590
    _ZN22ZCom_Replicate_NumericIPfLi1EE8peekDataEv @1591
    _ZN22ZCom_Replicate_NumericIPfLi1EE8setValueES0_ @1592
    _ZN22ZCom_Replicate_NumericIPfLi1EE8setValueEhf @1593
    _ZN22ZCom_Replicate_NumericIPfLi1EEC1ES0_P18ZCom_RSetupNumeric @1594
    _ZN22ZCom_Replicate_NumericIPfLi1EEC1ES0_hhhhss @1595
    _ZN22ZCom_Replicate_NumericIPfLi1EEC2ES0_P18ZCom_RSetupNumeric @1596
    _ZN22ZCom_Replicate_NumericIPfLi1EEC2ES0_hhhhss @1597
    _ZN22ZCom_Replicate_NumericIPfLi1EED0Ev @1598
    _ZN22ZCom_Replicate_NumericIPfLi1EED1Ev @1599
    _ZN22ZCom_Replicate_NumericIPfLi1EED2Ev @1600
    _ZN22ZCom_Replicate_NumericIPfLi2EE10checkStateEv @1601
    _ZN22ZCom_Replicate_NumericIPfLi2EE10unpackDataEP14ZCom_BitStreambj @1602
    _ZN22ZCom_Replicate_NumericIPfLi2EE13clearPeekDataEv @1603
    _ZN22ZCom_Replicate_NumericIPfLi2EE7ProcessE14eZCom_NodeRolej @1604
    _ZN22ZCom_Replicate_NumericIPfLi2EE8getValueEh @1605
    _ZN22ZCom_Replicate_NumericIPfLi2EE8getValueEv @1606
    _ZN22ZCom_Replicate_NumericIPfLi2EE8packDataEP14ZCom_BitStream @1607
    _ZN22ZCom_Replicate_NumericIPfLi2EE8peekDataEv @1608
    _ZN22ZCom_Replicate_NumericIPfLi2EE8setValueES0_ @1609
    _ZN22ZCom_Replicate_NumericIPfLi2EE8setValueEhf @1610
    _ZN22ZCom_Replicate_NumericIPfLi2EEC1ES0_P18ZCom_RSetupNumeric @1611
    _ZN22ZCom_Replicate_NumericIPfLi2EEC1ES0_hhhhss @1612
    _ZN22ZCom_Replicate_NumericIPfLi2EEC2ES0_P18ZCom_RSetupNumeric @1613
    _ZN22ZCom_Replicate_NumericIPfLi2EEC2ES0_hhhhss @1614
    _ZN22ZCom_Replicate_NumericIPfLi2EED0Ev @1615
    _ZN22ZCom_Replicate_NumericIPfLi2EED1Ev @1616
    _ZN22ZCom_Replicate_NumericIPfLi2EED2Ev @1617
    _ZN22ZCom_Replicate_NumericIPfLi3EE10checkStateEv @1618
    _ZN22ZCom_Replicate_NumericIPfLi3EE10unpackDataEP14ZCom_BitStreambj @1619
    _ZN22ZCom_Replicate_NumericIPfLi3EE13clearPeekDataEv @1620
    _ZN22ZCom_Replicate_NumericIPfLi3EE7ProcessE14eZCom_NodeRolej @1621
    _ZN22ZCom_Replicate_NumericIPfLi3EE8getValueEh @1622
    _ZN22ZCom_Replicate_NumericIPfLi3EE8getValueEv @1623
    _ZN22ZCom_Replicate_NumericIPfLi3EE8packDataEP14ZCom_BitStream @1624
    _ZN22ZCom_Replicate_NumericIPfLi3EE8peekDataEv @1625
    _ZN22ZCom_Replicate_NumericIPfLi3EE8setValueES0_ @1626
    _ZN22ZCom_Replicate_NumericIPfLi3EE8setValueEhf @1627
    _ZN22ZCom_Replicate_NumericIPfLi3EEC1ES0_P18ZCom_RSetupNumeric @1628
    _ZN22ZCom_Replicate_NumericIPfLi3EEC1ES0_hhhhss @1629
    _ZN22ZCom_Replicate_NumericIPfLi3EEC2ES0_P18ZCom_RSetupNumeric @1630
    _ZN22ZCom_Replicate_NumericIPfLi3EEC2ES0_hhhhss @1631
    _ZN22ZCom_Replicate_NumericIPfLi3EED0Ev @1632
    _ZN22ZCom_Replicate_NumericIPfLi3EED1Ev @1633
    _ZN22ZCom_Replicate_NumericIPfLi3EED2Ev @1634
    _ZN22ZCom_Replicate_NumericIPfLi4EE10checkStateEv @1635
    _ZN22ZCom_Replicate_NumericIPfLi4EE10unpackDataEP14ZCom_BitStreambj @1636
    _ZN22ZCom_Replicate_NumericIPfLi4EE13clearPeekDataEv @1637
    _ZN22ZCom_Replicate_NumericIPfLi4EE7ProcessE14eZCom_NodeRolej @1638
    _ZN22ZCom_Replicate_NumericIPfLi4EE8getValueEh @1639
    _ZN22ZCom_Replicate_NumericIPfLi4EE8getValueEv @1640
    _ZN22ZCom_Replicate_NumericIPfLi4EE8packDataEP14ZCom_BitStream @1641
    _ZN22ZCom_Replicate_NumericIPfLi4EE8peekDataEv @1642
    _ZN22ZCom_Replicate_NumericIPfLi4EE8setValueES0_ @1643
    _ZN22ZCom_Replicate_NumericIPfLi4EE8setValueEhf @1644
    _ZN22ZCom_Replicate_NumericIPfLi4EEC1ES0_P18ZCom_RSetupNumeric @1645
    _ZN22ZCom_Replicate_NumericIPfLi4EEC1ES0_hhhhss @1646
    _ZN22ZCom_Replicate_NumericIPfLi4EEC2ES0_P18ZCom_RSetupNumeric @1647
    _ZN22ZCom_Replicate_NumericIPfLi4EEC2ES0_hhhhss @1648
    _ZN22ZCom_Replicate_NumericIPfLi4EED0Ev @1649
    _ZN22ZCom_Replicate_NumericIPfLi4EED1Ev @1650
    _ZN22ZCom_Replicate_NumericIPfLi4EED2Ev @1651
    _ZN22ZCom_Replicate_NumericIPfLi5EE10checkStateEv @1652
    _ZN22ZCom_Replicate_NumericIPfLi5EE10unpackDataEP14ZCom_BitStreambj @1653
    _ZN22ZCom_Replicate_NumericIPfLi5EE13clearPeekDataEv @1654
    _ZN22ZCom_Replicate_NumericIPfLi5EE7ProcessE14eZCom_NodeRolej @1655
    _ZN22ZCom_Replicate_NumericIPfLi5EE8getValueEh @1656
    _ZN22ZCom_Replicate_NumericIPfLi5EE8getValueEv @1657
    _ZN22ZCom_Replicate_NumericIPfLi5EE8packDataEP14ZCom_BitStream @1658
    _ZN22ZCom_Replicate_NumericIPfLi5EE8peekDataEv @1659
    _ZN22ZCom_Replicate_NumericIPfLi5EE8setValueES0_ @1660
    _ZN22ZCom_Replicate_NumericIPfLi5EE8setValueEhf @1661
    _ZN22ZCom_Replicate_NumericIPfLi5EEC1ES0_P18ZCom_RSetupNumeric @1662
    _ZN22ZCom_Replicate_NumericIPfLi5EEC1ES0_hhhhss @1663
    _ZN22ZCom_Replicate_NumericIPfLi5EEC2ES0_P18ZCom_RSetupNumeric @1664
    _ZN22ZCom_Replicate_NumericIPfLi5EEC2ES0_hhhhss @1665
    _ZN22ZCom_Replicate_NumericIPfLi5EED0Ev @1666
    _ZN22ZCom_Replicate_NumericIPfLi5EED1Ev @1667
    _ZN22ZCom_Replicate_NumericIPfLi5EED2Ev @1668
    _ZN22ZCom_Replicate_NumericIPfLi6EE10checkStateEv @1669
    _ZN22ZCom_Replicate_NumericIPfLi6EE10unpackDataEP14ZCom_BitStreambj @1670
    _ZN22ZCom_Replicate_NumericIPfLi6EE13clearPeekDataEv @1671
    _ZN22ZCom_Replicate_NumericIPfLi6EE7ProcessE14eZCom_NodeRolej @1672
    _ZN22ZCom_Replicate_NumericIPfLi6EE8getValueEh @1673
    _ZN22ZCom_Replicate_NumericIPfLi6EE8getValueEv @1674
    _ZN22ZCom_Replicate_NumericIPfLi6EE8packDataEP14ZCom_BitStream @1675
    _ZN22ZCom_Replicate_NumericIPfLi6EE8peekDataEv @1676
    _ZN22ZCom_Replicate_NumericIPfLi6EE8setValueES0_ @1677
    _ZN22ZCom_Replicate_NumericIPfLi6EE8setValueEhf @1678
    _ZN22ZCom_Replicate_NumericIPfLi6EEC1ES0_P18ZCom_RSetupNumeric @1679
    _ZN22ZCom_Replicate_NumericIPfLi6EEC1ES0_hhhhss @1680
    _ZN22ZCom_Replicate_NumericIPfLi6EEC2ES0_P18ZCom_RSetupNumeric @1681
    _ZN22ZCom_Replicate_NumericIPfLi6EEC2ES0_hhhhss @1682
    _ZN22ZCom_Replicate_NumericIPfLi6EED0Ev @1683
    _ZN22ZCom_Replicate_NumericIPfLi6EED1Ev @1684
    _ZN22ZCom_Replicate_NumericIPfLi6EED2Ev @1685
    _ZN22ZCom_Replicate_NumericIPfLi7EE10checkStateEv @1686
    _ZN22ZCom_Replicate_NumericIPfLi7EE10unpackDataEP14ZCom_BitStreambj @1687
    _ZN22ZCom_Replicate_NumericIPfLi7EE13clearPeekDataEv @1688
    _ZN22ZCom_Replicate_NumericIPfLi7EE7ProcessE14eZCom_NodeRolej @1689
    _ZN22ZCom_Replicate_NumericIPfLi7EE8getValueEh @1690
    _ZN22ZCom_Replicate_NumericIPfLi7EE8getValueEv @1691
    _ZN22ZCom_Replicate_NumericIPfLi7EE8packDataEP14ZCom_BitStream @1692
    _ZN22ZCom_Replicate_NumericIPfLi7EE8peekDataEv @1693
    _ZN22ZCom_Replicate_NumericIPfLi7EE8setValueES0_ @1694
    _ZN22ZCom_Replicate_NumericIPfLi7EE8setValueEhf @1695
    _ZN22ZCom_Replicate_NumericIPfLi7EEC1ES0_P18ZCom_RSetupNumeric @1696
    _ZN22ZCom_Replicate_NumericIPfLi7EEC1ES0_hhhhss @1697
    _ZN22ZCom_Replicate_NumericIPfLi7EEC2ES0_P18ZCom_RSetupNumeric @1698
    _ZN22ZCom_Replicate_NumericIPfLi7EEC2ES0_hhhhss @1699
    _ZN22ZCom_Replicate_NumericIPfLi7EED0Ev @1700
    _ZN22ZCom_Replicate_NumericIPfLi7EED1Ev @1701
    _ZN22ZCom_Replicate_NumericIPfLi7EED2Ev @1702
    _ZN22ZCom_Replicate_NumericIPfLi8EE10checkStateEv @1703
    _ZN22ZCom_Replicate_NumericIPfLi8EE10unpackDataEP14ZCom_BitStreambj @1704
    _ZN22ZCom_Replicate_NumericIPfLi8EE13clearPeekDataEv @1705
    _ZN22ZCom_Replicate_NumericIPfLi8EE7ProcessE14eZCom_NodeRolej @1706
    _ZN22ZCom_Replicate_NumericIPfLi8EE8getValueEh @1707
    _ZN22ZCom_Replicate_NumericIPfLi8EE8getValueEv @1708
    _ZN22ZCom_Replicate_NumericIPfLi8EE8packDataEP14ZCom_BitStream @1709
    _ZN22ZCom_Replicate_NumericIPfLi8EE8peekDataEv @1710
    _ZN22ZCom_Replicate_NumericIPfLi8EE8setValueES0_ @1711
    _ZN22ZCom_Replicate_NumericIPfLi8EE8setValueEhf @1712
    _ZN22ZCom_Replicate_NumericIPfLi8EEC1ES0_P18ZCom_RSetupNumeric @1713
    _ZN22ZCom_Replicate_NumericIPfLi8EEC1ES0_hhhhss @1714
    _ZN22ZCom_Replicate_NumericIPfLi8EEC2ES0_P18ZCom_RSetupNumeric @1715
    _ZN22ZCom_Replicate_NumericIPfLi8EEC2ES0_hhhhss @1716
    _ZN22ZCom_Replicate_NumericIPfLi8EED0Ev @1717
    _ZN22ZCom_Replicate_NumericIPfLi8EED1Ev @1718
    _ZN22ZCom_Replicate_NumericIPfLi8EED2Ev @1719
    _ZN22ZCom_Replicate_NumericIPfLi9EE10checkStateEv @1720
    _ZN22ZCom_Replicate_NumericIPfLi9EE10unpackDataEP14ZCom_BitStreambj @1721
    _ZN22ZCom_Replicate_NumericIPfLi9EE13clearPeekDataEv @1722
    _ZN22ZCom_Replicate_NumericIPfLi9EE7ProcessE14eZCom_NodeRolej @1723
    _ZN22ZCom_Replicate_NumericIPfLi9EE8getValueEh @1724
    _ZN22ZCom_Replicate_NumericIPfLi9EE8getValueEv @1725
    _ZN22ZCom_Replicate_NumericIPfLi9EE8packDataEP14ZCom_BitStream @1726
    _ZN22ZCom_Replicate_NumericIPfLi9EE8peekDataEv @1727
    _ZN22ZCom_Replicate_NumericIPfLi9EE8setValueES0_ @1728
    _ZN22ZCom_Replicate_NumericIPfLi9EE8setValueEhf @1729
    _ZN22ZCom_Replicate_NumericIPfLi9EEC1ES0_P18ZCom_RSetupNumeric @1730
    _ZN22ZCom_Replicate_NumericIPfLi9EEC1ES0_hhhhss @1731
    _ZN22ZCom_Replicate_NumericIPfLi9EEC2ES0_P18ZCom_RSetupNumeric @1732
    _ZN22ZCom_Replicate_NumericIPfLi9EEC2ES0_hhhhss @1733
    _ZN22ZCom_Replicate_NumericIPfLi9EED0Ev @1734
    _ZN22ZCom_Replicate_NumericIPfLi9EED1Ev @1735
    _ZN22ZCom_Replicate_NumericIPfLi9EED2Ev @1736
    _ZN22ZCom_Replicate_NumericIPiLi10EE10checkStateEv @1737
    _ZN22ZCom_Replicate_NumericIPiLi10EE10unpackDataEP14ZCom_BitStreambj @1738
    _ZN22ZCom_Replicate_NumericIPiLi10EE13clearPeekDataEv @1739
    _ZN22ZCom_Replicate_NumericIPiLi10EE7ProcessE14eZCom_NodeRolej @1740
    _ZN22ZCom_Replicate_NumericIPiLi10EE8getValueEh @1741
    _ZN22ZCom_Replicate_NumericIPiLi10EE8getValueEv @1742
    _ZN22ZCom_Replicate_NumericIPiLi10EE8packDataEP14ZCom_BitStream @1743
    _ZN22ZCom_Replicate_NumericIPiLi10EE8peekDataEv @1744
    _ZN22ZCom_Replicate_NumericIPiLi10EE8setValueES0_ @1745
    _ZN22ZCom_Replicate_NumericIPiLi10EE8setValueEhi @1746
    _ZN22ZCom_Replicate_NumericIPiLi10EEC1ES0_P18ZCom_RSetupNumeric @1747
    _ZN22ZCom_Replicate_NumericIPiLi10EEC1ES0_hhhhss @1748
    _ZN22ZCom_Replicate_NumericIPiLi10EEC2ES0_P18ZCom_RSetupNumeric @1749
    _ZN22ZCom_Replicate_NumericIPiLi10EEC2ES0_hhhhss @1750
    _ZN22ZCom_Replicate_NumericIPiLi10EED0Ev @1751
    _ZN22ZCom_Replicate_NumericIPiLi10EED1Ev @1752
    _ZN22ZCom_Replicate_NumericIPiLi10EED2Ev @1753
    _ZN22ZCom_Replicate_NumericIPiLi11EE10checkStateEv @1754
    _ZN22ZCom_Replicate_NumericIPiLi11EE10unpackDataEP14ZCom_BitStreambj @1755
    _ZN22ZCom_Replicate_NumericIPiLi11EE13clearPeekDataEv @1756
    _ZN22ZCom_Replicate_NumericIPiLi11EE7ProcessE14eZCom_NodeRolej @1757
    _ZN22ZCom_Replicate_NumericIPiLi11EE8getValueEh @1758
    _ZN22ZCom_Replicate_NumericIPiLi11EE8getValueEv @1759
    _ZN22ZCom_Replicate_NumericIPiLi11EE8packDataEP14ZCom_BitStream @1760
    _ZN22ZCom_Replicate_NumericIPiLi11EE8peekDataEv @1761
    _ZN22ZCom_Replicate_NumericIPiLi11EE8setValueES0_ @1762
    _ZN22ZCom_Replicate_NumericIPiLi11EE8setValueEhi @1763
    _ZN22ZCom_Replicate_NumericIPiLi11EEC1ES0_P18ZCom_RSetupNumeric @1764
    _ZN22ZCom_Replicate_NumericIPiLi11EEC1ES0_hhhhss @1765
    _ZN22ZCom_Replicate_NumericIPiLi11EEC2ES0_P18ZCom_RSetupNumeric @1766
    _ZN22ZCom_Replicate_NumericIPiLi11EEC2ES0_hhhhss @1767
    _ZN22ZCom_Replicate_NumericIPiLi11EED0Ev @1768
    _ZN22ZCom_Replicate_NumericIPiLi11EED1Ev @1769
    _ZN22ZCom_Replicate_NumericIPiLi11EED2Ev @1770
    _ZN22ZCom_Replicate_NumericIPiLi12EE10checkStateEv @1771
    _ZN22ZCom_Replicate_NumericIPiLi12EE10unpackDataEP14ZCom_BitStreambj @1772
    _ZN22ZCom_Replicate_NumericIPiLi12EE13clearPeekDataEv @1773
    _ZN22ZCom_Replicate_NumericIPiLi12EE7ProcessE14eZCom_NodeRolej @1774
    _ZN22ZCom_Replicate_NumericIPiLi12EE8getValueEh @1775
    _ZN22ZCom_Replicate_NumericIPiLi12EE8getValueEv @1776
    _ZN22ZCom_Replicate_NumericIPiLi12EE8packDataEP14ZCom_BitStream @1777
    _ZN22ZCom_Replicate_NumericIPiLi12EE8peekDataEv @1778
    _ZN22ZCom_Replicate_NumericIPiLi12EE8setValueES0_ @1779
    _ZN22ZCom_Replicate_NumericIPiLi12EE8setValueEhi @1780
    _ZN22ZCom_Replicate_NumericIPiLi12EEC1ES0_P18ZCom_RSetupNumeric @1781
    _ZN22ZCom_Replicate_NumericIPiLi12EEC1ES0_hhhhss @1782
    _ZN22ZCom_Replicate_NumericIPiLi12EEC2ES0_P18ZCom_RSetupNumeric @1783
    _ZN22ZCom_Replicate_NumericIPiLi12EEC2ES0_hhhhss @1784
    _ZN22ZCom_Replicate_NumericIPiLi12EED0Ev @1785
    _ZN22ZCom_Replicate_NumericIPiLi12EED1Ev @1786
    _ZN22ZCom_Replicate_NumericIPiLi12EED2Ev @1787
    _ZN22ZCom_Replicate_NumericIPiLi1EE10checkStateEv @1788
    _ZN22ZCom_Replicate_NumericIPiLi1EE10unpackDataEP14ZCom_BitStreambj @1789
    _ZN22ZCom_Replicate_NumericIPiLi1EE13clearPeekDataEv @1790
    _ZN22ZCom_Replicate_NumericIPiLi1EE7ProcessE14eZCom_NodeRolej @1791
    _ZN22ZCom_Replicate_NumericIPiLi1EE8getValueEh @1792
    _ZN22ZCom_Replicate_NumericIPiLi1EE8getValueEv @1793
    _ZN22ZCom_Replicate_NumericIPiLi1EE8packDataEP14ZCom_BitStream @1794
    _ZN22ZCom_Replicate_NumericIPiLi1EE8peekDataEv @1795
    _ZN22ZCom_Replicate_NumericIPiLi1EE8setValueES0_ @1796
    _ZN22ZCom_Replicate_NumericIPiLi1EE8setValueEhi @1797
    _ZN22ZCom_Replicate_NumericIPiLi1EEC1ES0_P18ZCom_RSetupNumeric @1798
    _ZN22ZCom_Replicate_NumericIPiLi1EEC1ES0_hhhhss @1799
    _ZN22ZCom_Replicate_NumericIPiLi1EEC2ES0_P18ZCom_RSetupNumeric @1800
    _ZN22ZCom_Replicate_NumericIPiLi1EEC2ES0_hhhhss @1801
    _ZN22ZCom_Replicate_NumericIPiLi1EED0Ev @1802
    _ZN22ZCom_Replicate_NumericIPiLi1EED1Ev @1803
    _ZN22ZCom_Replicate_NumericIPiLi1EED2Ev @1804
    _ZN22ZCom_Replicate_NumericIPiLi2EE10checkStateEv @1805
    _ZN22ZCom_Replicate_NumericIPiLi2EE10unpackDataEP14ZCom_BitStreambj @1806
    _ZN22ZCom_Replicate_NumericIPiLi2EE13clearPeekDataEv @1807
    _ZN22ZCom_Replicate_NumericIPiLi2EE7ProcessE14eZCom_NodeRolej @1808
    _ZN22ZCom_Replicate_NumericIPiLi2EE8getValueEh @1809
    _ZN22ZCom_Replicate_NumericIPiLi2EE8getValueEv @1810
    _ZN22ZCom_Replicate_NumericIPiLi2EE8packDataEP14ZCom_BitStream @1811
    _ZN22ZCom_Replicate_NumericIPiLi2EE8peekDataEv @1812
    _ZN22ZCom_Replicate_NumericIPiLi2EE8setValueES0_ @1813
    _ZN22ZCom_Replicate_NumericIPiLi2EE8setValueEhi @1814
    _ZN22ZCom_Replicate_NumericIPiLi2EEC1ES0_P18ZCom_RSetupNumeric @1815
    _ZN22ZCom_Replicate_NumericIPiLi2EEC1ES0_hhhhss @1816
    _ZN22ZCom_Replicate_NumericIPiLi2EEC2ES0_P18ZCom_RSetupNumeric @1817
    _ZN22ZCom_Replicate_NumericIPiLi2EEC2ES0_hhhhss @1818
    _ZN22ZCom_Replicate_NumericIPiLi2EED0Ev @1819
    _ZN22ZCom_Replicate_NumericIPiLi2EED1Ev @1820
    _ZN22ZCom_Replicate_NumericIPiLi2EED2Ev @1821
    _ZN22ZCom_Replicate_NumericIPiLi3EE10checkStateEv @1822
    _ZN22ZCom_Replicate_NumericIPiLi3EE10unpackDataEP14ZCom_BitStreambj @1823
    _ZN22ZCom_Replicate_NumericIPiLi3EE13clearPeekDataEv @1824
    _ZN22ZCom_Replicate_NumericIPiLi3EE7ProcessE14eZCom_NodeRolej @1825
    _ZN22ZCom_Replicate_NumericIPiLi3EE8getValueEh @1826
    _ZN22ZCom_Replicate_NumericIPiLi3EE8getValueEv @1827
    _ZN22ZCom_Replicate_NumericIPiLi3EE8packDataEP14ZCom_BitStream @1828
    _ZN22ZCom_Replicate_NumericIPiLi3EE8peekDataEv @1829
    _ZN22ZCom_Replicate_NumericIPiLi3EE8setValueES0_ @1830
    _ZN22ZCom_Replicate_NumericIPiLi3EE8setValueEhi @1831
    _ZN22ZCom_Replicate_NumericIPiLi3EEC1ES0_P18ZCom_RSetupNumeric @1832
    _ZN22ZCom_Replicate_NumericIPiLi3EEC1ES0_hhhhss @1833
    _ZN22ZCom_Replicate_NumericIPiLi3EEC2ES0_P18ZCom_RSetupNumeric @1834
    _ZN22ZCom_Replicate_NumericIPiLi3EEC2ES0_hhhhss @1835
    _ZN22ZCom_Replicate_NumericIPiLi3EED0Ev @1836
    _ZN22ZCom_Replicate_NumericIPiLi3EED1Ev @1837
    _ZN22ZCom_Replicate_NumericIPiLi3EED2Ev @1838
    _ZN22ZCom_Replicate_NumericIPiLi4EE10checkStateEv @1839
    _ZN22ZCom_Replicate_NumericIPiLi4EE10unpackDataEP14ZCom_BitStreambj @1840
    _ZN22ZCom_Replicate_NumericIPiLi4EE13clearPeekDataEv @1841
    _ZN22ZCom_Replicate_NumericIPiLi4EE7ProcessE14eZCom_NodeRolej @1842
    _ZN22ZCom_Replicate_NumericIPiLi4EE8getValueEh @1843
    _ZN22ZCom_Replicate_NumericIPiLi4EE8getValueEv @1844
    _ZN22ZCom_Replicate_NumericIPiLi4EE8packDataEP14ZCom_BitStream @1845
    _ZN22ZCom_Replicate_NumericIPiLi4EE8peekDataEv @1846
    _ZN22ZCom_Replicate_NumericIPiLi4EE8setValueES0_ @1847
    _ZN22ZCom_Replicate_NumericIPiLi4EE8setValueEhi @1848
    _ZN22ZCom_Replicate_NumericIPiLi4EEC1ES0_P18ZCom_RSetupNumeric @1849
    _ZN22ZCom_Replicate_NumericIPiLi4EEC1ES0_hhhhss @1850
    _ZN22ZCom_Replicate_NumericIPiLi4EEC2ES0_P18ZCom_RSetupNumeric @1851
    _ZN22ZCom_Replicate_NumericIPiLi4EEC2ES0_hhhhss @1852
    _ZN22ZCom_Replicate_NumericIPiLi4EED0Ev @1853
    _ZN22ZCom_Replicate_NumericIPiLi4EED1Ev @1854
    _ZN22ZCom_Replicate_NumericIPiLi4EED2Ev @1855
    _ZN22ZCom_Replicate_NumericIPiLi5EE10checkStateEv @1856
    _ZN22ZCom_Replicate_NumericIPiLi5EE10unpackDataEP14ZCom_BitStreambj @1857
    _ZN22ZCom_Replicate_NumericIPiLi5EE13clearPeekDataEv @1858
    _ZN22ZCom_Replicate_NumericIPiLi5EE7ProcessE14eZCom_NodeRolej @1859
    _ZN22ZCom_Replicate_NumericIPiLi5EE8getValueEh @1860
    _ZN22ZCom_Replicate_NumericIPiLi5EE8getValueEv @1861
    _ZN22ZCom_Replicate_NumericIPiLi5EE8packDataEP14ZCom_BitStream @1862
    _ZN22ZCom_Replicate_NumericIPiLi5EE8peekDataEv @1863
    _ZN22ZCom_Replicate_NumericIPiLi5EE8setValueES0_ @1864
    _ZN22ZCom_Replicate_NumericIPiLi5EE8setValueEhi @1865
    _ZN22ZCom_Replicate_NumericIPiLi5EEC1ES0_P18ZCom_RSetupNumeric @1866
    _ZN22ZCom_Replicate_NumericIPiLi5EEC1ES0_hhhhss @1867
    _ZN22ZCom_Replicate_NumericIPiLi5EEC2ES0_P18ZCom_RSetupNumeric @1868
    _ZN22ZCom_Replicate_NumericIPiLi5EEC2ES0_hhhhss @1869
    _ZN22ZCom_Replicate_NumericIPiLi5EED0Ev @1870
    _ZN22ZCom_Replicate_NumericIPiLi5EED1Ev @1871
    _ZN22ZCom_Replicate_NumericIPiLi5EED2Ev @1872
    _ZN22ZCom_Replicate_NumericIPiLi6EE10checkStateEv @1873
    _ZN22ZCom_Replicate_NumericIPiLi6EE10unpackDataEP14ZCom_BitStreambj @1874
    _ZN22ZCom_Replicate_NumericIPiLi6EE13clearPeekDataEv @1875
    _ZN22ZCom_Replicate_NumericIPiLi6EE7ProcessE14eZCom_NodeRolej @1876
    _ZN22ZCom_Replicate_NumericIPiLi6EE8getValueEh @1877
    _ZN22ZCom_Replicate_NumericIPiLi6EE8getValueEv @1878
    _ZN22ZCom_Replicate_NumericIPiLi6EE8packDataEP14ZCom_BitStream @1879
    _ZN22ZCom_Replicate_NumericIPiLi6EE8peekDataEv @1880
    _ZN22ZCom_Replicate_NumericIPiLi6EE8setValueES0_ @1881
    _ZN22ZCom_Replicate_NumericIPiLi6EE8setValueEhi @1882
    _ZN22ZCom_Replicate_NumericIPiLi6EEC1ES0_P18ZCom_RSetupNumeric @1883
    _ZN22ZCom_Replicate_NumericIPiLi6EEC1ES0_hhhhss @1884
    _ZN22ZCom_Replicate_NumericIPiLi6EEC2ES0_P18ZCom_RSetupNumeric @1885
    _ZN22ZCom_Replicate_NumericIPiLi6EEC2ES0_hhhhss @1886
    _ZN22ZCom_Replicate_NumericIPiLi6EED0Ev @1887
    _ZN22ZCom_Replicate_NumericIPiLi6EED1Ev @1888
    _ZN22ZCom_Replicate_NumericIPiLi6EED2Ev @1889
    _ZN22ZCom_Replicate_NumericIPiLi7EE10checkStateEv @1890
    _ZN22ZCom_Replicate_NumericIPiLi7EE10unpackDataEP14ZCom_BitStreambj @1891
    _ZN22ZCom_Replicate_NumericIPiLi7EE13clearPeekDataEv @1892
    _ZN22ZCom_Replicate_NumericIPiLi7EE7ProcessE14eZCom_NodeRolej @1893
    _ZN22ZCom_Replicate_NumericIPiLi7EE8getValueEh @1894
    _ZN22ZCom_Replicate_NumericIPiLi7EE8getValueEv @1895
    _ZN22ZCom_Replicate_NumericIPiLi7EE8packDataEP14ZCom_BitStream @1896
    _ZN22ZCom_Replicate_NumericIPiLi7EE8peekDataEv @1897
    _ZN22ZCom_Replicate_NumericIPiLi7EE8setValueES0_ @1898
    _ZN22ZCom_Replicate_NumericIPiLi7EE8setValueEhi @1899
    _ZN22ZCom_Replicate_NumericIPiLi7EEC1ES0_P18ZCom_RSetupNumeric @1900
    _ZN22ZCom_Replicate_NumericIPiLi7EEC1ES0_hhhhss @1901
    _ZN22ZCom_Replicate_NumericIPiLi7EEC2ES0_P18ZCom_RSetupNumeric @1902
    _ZN22ZCom_Replicate_NumericIPiLi7EEC2ES0_hhhhss @1903
    _ZN22ZCom_Replicate_NumericIPiLi7EED0Ev @1904
    _ZN22ZCom_Replicate_NumericIPiLi7EED1Ev @1905
    _ZN22ZCom_Replicate_NumericIPiLi7EED2Ev @1906
    _ZN22ZCom_Replicate_NumericIPiLi8EE10checkStateEv @1907
    _ZN22ZCom_Replicate_NumericIPiLi8EE10unpackDataEP14ZCom_BitStreambj @1908
    _ZN22ZCom_Replicate_NumericIPiLi8EE13clearPeekDataEv @1909
    _ZN22ZCom_Replicate_NumericIPiLi8EE7ProcessE14eZCom_NodeRolej @1910
    _ZN22ZCom_Replicate_NumericIPiLi8EE8getValueEh @1911
    _ZN22ZCom_Replicate_NumericIPiLi8EE8getValueEv @1912
    _ZN22ZCom_Replicate_NumericIPiLi8EE8packDataEP14ZCom_BitStream @1913
    _ZN22ZCom_Replicate_NumericIPiLi8EE8peekDataEv @1914
    _ZN22ZCom_Replicate_NumericIPiLi8EE8setValueES0_ @1915
    _ZN22ZCom_Replicate_NumericIPiLi8EE8setValueEhi @1916
    _ZN22ZCom_Replicate_NumericIPiLi8EEC1ES0_P18ZCom_RSetupNumeric @1917
    _ZN22ZCom_Replicate_NumericIPiLi8EEC1ES0_hhhhss @1918
    _ZN22ZCom_Replicate_NumericIPiLi8EEC2ES0_P18ZCom_RSetupNumeric @1919
    _ZN22ZCom_Replicate_NumericIPiLi8EEC2ES0_hhhhss @1920
    _ZN22ZCom_Replicate_NumericIPiLi8EED0Ev @1921
    _ZN22ZCom_Replicate_NumericIPiLi8EED1Ev @1922
    _ZN22ZCom_Replicate_NumericIPiLi8EED2Ev @1923
    _ZN22ZCom_Replicate_NumericIPiLi9EE10checkStateEv @1924
    _ZN22ZCom_Replicate_NumericIPiLi9EE10unpackDataEP14ZCom_BitStreambj @1925
    _ZN22ZCom_Replicate_NumericIPiLi9EE13clearPeekDataEv @1926
    _ZN22ZCom_Replicate_NumericIPiLi9EE7ProcessE14eZCom_NodeRolej @1927
    _ZN22ZCom_Replicate_NumericIPiLi9EE8getValueEh @1928
    _ZN22ZCom_Replicate_NumericIPiLi9EE8getValueEv @1929
    _ZN22ZCom_Replicate_NumericIPiLi9EE8packDataEP14ZCom_BitStream @1930
    _ZN22ZCom_Replicate_NumericIPiLi9EE8peekDataEv @1931
    _ZN22ZCom_Replicate_NumericIPiLi9EE8setValueES0_ @1932
    _ZN22ZCom_Replicate_NumericIPiLi9EE8setValueEhi @1933
    _ZN22ZCom_Replicate_NumericIPiLi9EEC1ES0_P18ZCom_RSetupNumeric @1934
    _ZN22ZCom_Replicate_NumericIPiLi9EEC1ES0_hhhhss @1935
    _ZN22ZCom_Replicate_NumericIPiLi9EEC2ES0_P18ZCom_RSetupNumeric @1936
    _ZN22ZCom_Replicate_NumericIPiLi9EEC2ES0_hhhhss @1937
    _ZN22ZCom_Replicate_NumericIPiLi9EED0Ev @1938
    _ZN22ZCom_Replicate_NumericIPiLi9EED1Ev @1939
    _ZN22ZCom_Replicate_NumericIPiLi9EED2Ev @1940
    _ZN22ZCom_Replicate_NumericIPjLi10EE10checkStateEv @1941
    _ZN22ZCom_Replicate_NumericIPjLi10EE10unpackDataEP14ZCom_BitStreambj @1942
    _ZN22ZCom_Replicate_NumericIPjLi10EE13clearPeekDataEv @1943
    _ZN22ZCom_Replicate_NumericIPjLi10EE7ProcessE14eZCom_NodeRolej @1944
    _ZN22ZCom_Replicate_NumericIPjLi10EE8getValueEh @1945
    _ZN22ZCom_Replicate_NumericIPjLi10EE8getValueEv @1946
    _ZN22ZCom_Replicate_NumericIPjLi10EE8packDataEP14ZCom_BitStream @1947
    _ZN22ZCom_Replicate_NumericIPjLi10EE8peekDataEv @1948
    _ZN22ZCom_Replicate_NumericIPjLi10EE8setValueES0_ @1949
    _ZN22ZCom_Replicate_NumericIPjLi10EE8setValueEhj @1950
    _ZN22ZCom_Replicate_NumericIPjLi10EEC1ES0_P18ZCom_RSetupNumeric @1951
    _ZN22ZCom_Replicate_NumericIPjLi10EEC1ES0_hhhhss @1952
    _ZN22ZCom_Replicate_NumericIPjLi10EEC2ES0_P18ZCom_RSetupNumeric @1953
    _ZN22ZCom_Replicate_NumericIPjLi10EEC2ES0_hhhhss @1954
    _ZN22ZCom_Replicate_NumericIPjLi10EED0Ev @1955
    _ZN22ZCom_Replicate_NumericIPjLi10EED1Ev @1956
    _ZN22ZCom_Replicate_NumericIPjLi10EED2Ev @1957
    _ZN22ZCom_Replicate_NumericIPjLi11EE10checkStateEv @1958
    _ZN22ZCom_Replicate_NumericIPjLi11EE10unpackDataEP14ZCom_BitStreambj @1959
    _ZN22ZCom_Replicate_NumericIPjLi11EE13clearPeekDataEv @1960
    _ZN22ZCom_Replicate_NumericIPjLi11EE7ProcessE14eZCom_NodeRolej @1961
    _ZN22ZCom_Replicate_NumericIPjLi11EE8getValueEh @1962
    _ZN22ZCom_Replicate_NumericIPjLi11EE8getValueEv @1963
    _ZN22ZCom_Replicate_NumericIPjLi11EE8packDataEP14ZCom_BitStream @1964
    _ZN22ZCom_Replicate_NumericIPjLi11EE8peekDataEv @1965
    _ZN22ZCom_Replicate_NumericIPjLi11EE8setValueES0_ @1966
    _ZN22ZCom_Replicate_NumericIPjLi11EE8setValueEhj @1967
    _ZN22ZCom_Replicate_NumericIPjLi11EEC1ES0_P18ZCom_RSetupNumeric @1968
    _ZN22ZCom_Replicate_NumericIPjLi11EEC1ES0_hhhhss @1969
    _ZN22ZCom_Replicate_NumericIPjLi11EEC2ES0_P18ZCom_RSetupNumeric @1970
    _ZN22ZCom_Replicate_NumericIPjLi11EEC2ES0_hhhhss @1971
    _ZN22ZCom_Replicate_NumericIPjLi11EED0Ev @1972
    _ZN22ZCom_Replicate_NumericIPjLi11EED1Ev @1973
    _ZN22ZCom_Replicate_NumericIPjLi11EED2Ev @1974
    _ZN22ZCom_Replicate_NumericIPjLi12EE10checkStateEv @1975
    _ZN22ZCom_Replicate_NumericIPjLi12EE10unpackDataEP14ZCom_BitStreambj @1976
    _ZN22ZCom_Replicate_NumericIPjLi12EE13clearPeekDataEv @1977
    _ZN22ZCom_Replicate_NumericIPjLi12EE7ProcessE14eZCom_NodeRolej @1978
    _ZN22ZCom_Replicate_NumericIPjLi12EE8getValueEh @1979
    _ZN22ZCom_Replicate_NumericIPjLi12EE8getValueEv @1980
    _ZN22ZCom_Replicate_NumericIPjLi12EE8packDataEP14ZCom_BitStream @1981
    _ZN22ZCom_Replicate_NumericIPjLi12EE8peekDataEv @1982
    _ZN22ZCom_Replicate_NumericIPjLi12EE8setValueES0_ @1983
    _ZN22ZCom_Replicate_NumericIPjLi12EE8setValueEhj @1984
    _ZN22ZCom_Replicate_NumericIPjLi12EEC1ES0_P18ZCom_RSetupNumeric @1985
    _ZN22ZCom_Replicate_NumericIPjLi12EEC1ES0_hhhhss @1986
    _ZN22ZCom_Replicate_NumericIPjLi12EEC2ES0_P18ZCom_RSetupNumeric @1987
    _ZN22ZCom_Replicate_NumericIPjLi12EEC2ES0_hhhhss @1988
    _ZN22ZCom_Replicate_NumericIPjLi12EED0Ev @1989
    _ZN22ZCom_Replicate_NumericIPjLi12EED1Ev @1990
    _ZN22ZCom_Replicate_NumericIPjLi12EED2Ev @1991
    _ZN22ZCom_Replicate_NumericIPjLi1EE10checkStateEv @1992
    _ZN22ZCom_Replicate_NumericIPjLi1EE10unpackDataEP14ZCom_BitStreambj @1993
    _ZN22ZCom_Replicate_NumericIPjLi1EE13clearPeekDataEv @1994
    _ZN22ZCom_Replicate_NumericIPjLi1EE7ProcessE14eZCom_NodeRolej @1995
    _ZN22ZCom_Replicate_NumericIPjLi1EE8getValueEh @1996
    _ZN22ZCom_Replicate_NumericIPjLi1EE8getValueEv @1997
    _ZN22ZCom_Replicate_NumericIPjLi1EE8packDataEP14ZCom_BitStream @1998
    _ZN22ZCom_Replicate_NumericIPjLi1EE8peekDataEv @1999
    _ZN22ZCom_Replicate_NumericIPjLi1EE8setValueES0_ @2000
    _ZN22ZCom_Replicate_NumericIPjLi1EE8setValueEhj @2001
    _ZN22ZCom_Replicate_NumericIPjLi1EEC1ES0_P18ZCom_RSetupNumeric @2002
    _ZN22ZCom_Replicate_NumericIPjLi1EEC1ES0_hhhhss @2003
    _ZN22ZCom_Replicate_NumericIPjLi1EEC2ES0_P18ZCom_RSetupNumeric @2004
    _ZN22ZCom_Replicate_NumericIPjLi1EEC2ES0_hhhhss @2005
    _ZN22ZCom_Replicate_NumericIPjLi1EED0Ev @2006
    _ZN22ZCom_Replicate_NumericIPjLi1EED1Ev @2007
    _ZN22ZCom_Replicate_NumericIPjLi1EED2Ev @2008
    _ZN22ZCom_Replicate_NumericIPjLi2EE10checkStateEv @2009
    _ZN22ZCom_Replicate_NumericIPjLi2EE10unpackDataEP14ZCom_BitStreambj @2010
    _ZN22ZCom_Replicate_NumericIPjLi2EE13clearPeekDataEv @2011
    _ZN22ZCom_Replicate_NumericIPjLi2EE7ProcessE14eZCom_NodeRolej @2012
    _ZN22ZCom_Replicate_NumericIPjLi2EE8getValueEh @2013
    _ZN22ZCom_Replicate_NumericIPjLi2EE8getValueEv @2014
    _ZN22ZCom_Replicate_NumericIPjLi2EE8packDataEP14ZCom_BitStream @2015
    _ZN22ZCom_Replicate_NumericIPjLi2EE8peekDataEv @2016
    _ZN22ZCom_Replicate_NumericIPjLi2EE8setValueES0_ @2017
    _ZN22ZCom_Replicate_NumericIPjLi2EE8setValueEhj @2018
    _ZN22ZCom_Replicate_NumericIPjLi2EEC1ES0_P18ZCom_RSetupNumeric @2019
    _ZN22ZCom_Replicate_NumericIPjLi2EEC1ES0_hhhhss @2020
    _ZN22ZCom_Replicate_NumericIPjLi2EEC2ES0_P18ZCom_RSetupNumeric @2021
    _ZN22ZCom_Replicate_NumericIPjLi2EEC2ES0_hhhhss @2022
    _ZN22ZCom_Replicate_NumericIPjLi2EED0Ev @2023
    _ZN22ZCom_Replicate_NumericIPjLi2EED1Ev @2024
    _ZN22ZCom_Replicate_NumericIPjLi2EED2Ev @2025
    _ZN22ZCom_Replicate_NumericIPjLi3EE10checkStateEv @2026
    _ZN22ZCom_Replicate_NumericIPjLi3EE10unpackDataEP14ZCom_BitStreambj @2027
    _ZN22ZCom_Replicate_NumericIPjLi3EE13clearPeekDataEv @2028
    _ZN22ZCom_Replicate_NumericIPjLi3EE7ProcessE14eZCom_NodeRolej @2029
    _ZN22ZCom_Replicate_NumericIPjLi3EE8getValueEh @2030
    _ZN22ZCom_Replicate_NumericIPjLi3EE8getValueEv @2031
    _ZN22ZCom_Replicate_NumericIPjLi3EE8packDataEP14ZCom_BitStream @2032
    _ZN22ZCom_Replicate_NumericIPjLi3EE8peekDataEv @2033
    _ZN22ZCom_Replicate_NumericIPjLi3EE8setValueES0_ @2034
    _ZN22ZCom_Replicate_NumericIPjLi3EE8setValueEhj @2035
    _ZN22ZCom_Replicate_NumericIPjLi3EEC1ES0_P18ZCom_RSetupNumeric @2036
    _ZN22ZCom_Replicate_NumericIPjLi3EEC1ES0_hhhhss @2037
    _ZN22ZCom_Replicate_NumericIPjLi3EEC2ES0_P18ZCom_RSetupNumeric @2038
    _ZN22ZCom_Replicate_NumericIPjLi3EEC2ES0_hhhhss @2039
    _ZN22ZCom_Replicate_NumericIPjLi3EED0Ev @2040
    _ZN22ZCom_Replicate_NumericIPjLi3EED1Ev @2041
    _ZN22ZCom_Replicate_NumericIPjLi3EED2Ev @2042
    _ZN22ZCom_Replicate_NumericIPjLi4EE10checkStateEv @2043
    _ZN22ZCom_Replicate_NumericIPjLi4EE10unpackDataEP14ZCom_BitStreambj @2044
    _ZN22ZCom_Replicate_NumericIPjLi4EE13clearPeekDataEv @2045
    _ZN22ZCom_Replicate_NumericIPjLi4EE7ProcessE14eZCom_NodeRolej @2046
    _ZN22ZCom_Replicate_NumericIPjLi4EE8getValueEh @2047
    _ZN22ZCom_Replicate_NumericIPjLi4EE8getValueEv @2048
    _ZN22ZCom_Replicate_NumericIPjLi4EE8packDataEP14ZCom_BitStream @2049
    _ZN22ZCom_Replicate_NumericIPjLi4EE8peekDataEv @2050
    _ZN22ZCom_Replicate_NumericIPjLi4EE8setValueES0_ @2051
    _ZN22ZCom_Replicate_NumericIPjLi4EE8setValueEhj @2052
    _ZN22ZCom_Replicate_NumericIPjLi4EEC1ES0_P18ZCom_RSetupNumeric @2053
    _ZN22ZCom_Replicate_NumericIPjLi4EEC1ES0_hhhhss @2054
    _ZN22ZCom_Replicate_NumericIPjLi4EEC2ES0_P18ZCom_RSetupNumeric @2055
    _ZN22ZCom_Replicate_NumericIPjLi4EEC2ES0_hhhhss @2056
    _ZN22ZCom_Replicate_NumericIPjLi4EED0Ev @2057
    _ZN22ZCom_Replicate_NumericIPjLi4EED1Ev @2058
    _ZN22ZCom_Replicate_NumericIPjLi4EED2Ev @2059
    _ZN22ZCom_Replicate_NumericIPjLi5EE10checkStateEv @2060
    _ZN22ZCom_Replicate_NumericIPjLi5EE10unpackDataEP14ZCom_BitStreambj @2061
    _ZN22ZCom_Replicate_NumericIPjLi5EE13clearPeekDataEv @2062
    _ZN22ZCom_Replicate_NumericIPjLi5EE7ProcessE14eZCom_NodeRolej @2063
    _ZN22ZCom_Replicate_NumericIPjLi5EE8getValueEh @2064
    _ZN22ZCom_Replicate_NumericIPjLi5EE8getValueEv @2065
    _ZN22ZCom_Replicate_NumericIPjLi5EE8packDataEP14ZCom_BitStream @2066
    _ZN22ZCom_Replicate_NumericIPjLi5EE8peekDataEv @2067
    _ZN22ZCom_Replicate_NumericIPjLi5EE8setValueES0_ @2068
    _ZN22ZCom_Replicate_NumericIPjLi5EE8setValueEhj @2069
    _ZN22ZCom_Replicate_NumericIPjLi5EEC1ES0_P18ZCom_RSetupNumeric @2070
    _ZN22ZCom_Replicate_NumericIPjLi5EEC1ES0_hhhhss @2071
    _ZN22ZCom_Replicate_NumericIPjLi5EEC2ES0_P18ZCom_RSetupNumeric @2072
    _ZN22ZCom_Replicate_NumericIPjLi5EEC2ES0_hhhhss @2073
    _ZN22ZCom_Replicate_NumericIPjLi5EED0Ev @2074
    _ZN22ZCom_Replicate_NumericIPjLi5EED1Ev @2075
    _ZN22ZCom_Replicate_NumericIPjLi5EED2Ev @2076
    _ZN22ZCom_Replicate_NumericIPjLi6EE10checkStateEv @2077
    _ZN22ZCom_Replicate_NumericIPjLi6EE10unpackDataEP14ZCom_BitStreambj @2078
    _ZN22ZCom_Replicate_NumericIPjLi6EE13clearPeekDataEv @2079
    _ZN22ZCom_Replicate_NumericIPjLi6EE7ProcessE14eZCom_NodeRolej @2080
    _ZN22ZCom_Replicate_NumericIPjLi6EE8getValueEh @2081
    _ZN22ZCom_Replicate_NumericIPjLi6EE8getValueEv @2082
    _ZN22ZCom_Replicate_NumericIPjLi6EE8packDataEP14ZCom_BitStream @2083
    _ZN22ZCom_Replicate_NumericIPjLi6EE8peekDataEv @2084
    _ZN22ZCom_Replicate_NumericIPjLi6EE8setValueES0_ @2085
    _ZN22ZCom_Replicate_NumericIPjLi6EE8setValueEhj @2086
    _ZN22ZCom_Replicate_NumericIPjLi6EEC1ES0_P18ZCom_RSetupNumeric @2087
    _ZN22ZCom_Replicate_NumericIPjLi6EEC1ES0_hhhhss @2088
    _ZN22ZCom_Replicate_NumericIPjLi6EEC2ES0_P18ZCom_RSetupNumeric @2089
    _ZN22ZCom_Replicate_NumericIPjLi6EEC2ES0_hhhhss @2090
    _ZN22ZCom_Replicate_NumericIPjLi6EED0Ev @2091
    _ZN22ZCom_Replicate_NumericIPjLi6EED1Ev @2092
    _ZN22ZCom_Replicate_NumericIPjLi6EED2Ev @2093
    _ZN22ZCom_Replicate_NumericIPjLi7EE10checkStateEv @2094
    _ZN22ZCom_Replicate_NumericIPjLi7EE10unpackDataEP14ZCom_BitStreambj @2095
    _ZN22ZCom_Replicate_NumericIPjLi7EE13clearPeekDataEv @2096
    _ZN22ZCom_Replicate_NumericIPjLi7EE7ProcessE14eZCom_NodeRolej @2097
    _ZN22ZCom_Replicate_NumericIPjLi7EE8getValueEh @2098
    _ZN22ZCom_Replicate_NumericIPjLi7EE8getValueEv @2099
    _ZN22ZCom_Replicate_NumericIPjLi7EE8packDataEP14ZCom_BitStream @2100
    _ZN22ZCom_Replicate_NumericIPjLi7EE8peekDataEv @2101
    _ZN22ZCom_Replicate_NumericIPjLi7EE8setValueES0_ @2102
    _ZN22ZCom_Replicate_NumericIPjLi7EE8setValueEhj @2103
    _ZN22ZCom_Replicate_NumericIPjLi7EEC1ES0_P18ZCom_RSetupNumeric @2104
    _ZN22ZCom_Replicate_NumericIPjLi7EEC1ES0_hhhhss @2105
    _ZN22ZCom_Replicate_NumericIPjLi7EEC2ES0_P18ZCom_RSetupNumeric @2106
    _ZN22ZCom_Replicate_NumericIPjLi7EEC2ES0_hhhhss @2107
    _ZN22ZCom_Replicate_NumericIPjLi7EED0Ev @2108
    _ZN22ZCom_Replicate_NumericIPjLi7EED1Ev @2109
    _ZN22ZCom_Replicate_NumericIPjLi7EED2Ev @2110
    _ZN22ZCom_Replicate_NumericIPjLi8EE10checkStateEv @2111
    _ZN22ZCom_Replicate_NumericIPjLi8EE10unpackDataEP14ZCom_BitStreambj @2112
    _ZN22ZCom_Replicate_NumericIPjLi8EE13clearPeekDataEv @2113
    _ZN22ZCom_Replicate_NumericIPjLi8EE7ProcessE14eZCom_NodeRolej @2114
    _ZN22ZCom_Replicate_NumericIPjLi8EE8getValueEh @2115
    _ZN22ZCom_Replicate_NumericIPjLi8EE8getValueEv @2116
    _ZN22ZCom_Replicate_NumericIPjLi8EE8packDataEP14ZCom_BitStream @2117
    _ZN22ZCom_Replicate_NumericIPjLi8EE8peekDataEv @2118
    _ZN22ZCom_Replicate_NumericIPjLi8EE8setValueES0_ @2119
    _ZN22ZCom_Replicate_NumericIPjLi8EE8setValueEhj @2120
    _ZN22ZCom_Replicate_NumericIPjLi8EEC1ES0_P18ZCom_RSetupNumeric @2121
    _ZN22ZCom_Replicate_NumericIPjLi8EEC1ES0_hhhhss @2122
    _ZN22ZCom_Replicate_NumericIPjLi8EEC2ES0_P18ZCom_RSetupNumeric @2123
    _ZN22ZCom_Replicate_NumericIPjLi8EEC2ES0_hhhhss @2124
    _ZN22ZCom_Replicate_NumericIPjLi8EED0Ev @2125
    _ZN22ZCom_Replicate_NumericIPjLi8EED1Ev @2126
    _ZN22ZCom_Replicate_NumericIPjLi8EED2Ev @2127
    _ZN22ZCom_Replicate_NumericIPjLi9EE10checkStateEv @2128
    _ZN22ZCom_Replicate_NumericIPjLi9EE10unpackDataEP14ZCom_BitStreambj @2129
    _ZN22ZCom_Replicate_NumericIPjLi9EE13clearPeekDataEv @2130
    _ZN22ZCom_Replicate_NumericIPjLi9EE7ProcessE14eZCom_NodeRolej @2131
    _ZN22ZCom_Replicate_NumericIPjLi9EE8getValueEh @2132
    _ZN22ZCom_Replicate_NumericIPjLi9EE8getValueEv @2133
    _ZN22ZCom_Replicate_NumericIPjLi9EE8packDataEP14ZCom_BitStream @2134
    _ZN22ZCom_Replicate_NumericIPjLi9EE8peekDataEv @2135
    _ZN22ZCom_Replicate_NumericIPjLi9EE8setValueES0_ @2136
    _ZN22ZCom_Replicate_NumericIPjLi9EE8setValueEhj @2137
    _ZN22ZCom_Replicate_NumericIPjLi9EEC1ES0_P18ZCom_RSetupNumeric @2138
    _ZN22ZCom_Replicate_NumericIPjLi9EEC1ES0_hhhhss @2139
    _ZN22ZCom_Replicate_NumericIPjLi9EEC2ES0_P18ZCom_RSetupNumeric @2140
    _ZN22ZCom_Replicate_NumericIPjLi9EEC2ES0_hhhhss @2141
    _ZN22ZCom_Replicate_NumericIPjLi9EED0Ev @2142
    _ZN22ZCom_Replicate_NumericIPjLi9EED1Ev @2143
    _ZN22ZCom_Replicate_NumericIPjLi9EED2Ev @2144
    _ZN22ZCom_Replicate_NumericIfLi10EE10checkStateEv @2145
    _ZN22ZCom_Replicate_NumericIfLi10EE10unpackDataEP14ZCom_BitStreambj @2146
    _ZN22ZCom_Replicate_NumericIfLi10EE13clearPeekDataEv @2147
    _ZN22ZCom_Replicate_NumericIfLi10EE7ProcessE14eZCom_NodeRolej @2148
    _ZN22ZCom_Replicate_NumericIfLi10EE8getValueEh @2149
    _ZN22ZCom_Replicate_NumericIfLi10EE8getValueEv @2150
    _ZN22ZCom_Replicate_NumericIfLi10EE8packDataEP14ZCom_BitStream @2151
    _ZN22ZCom_Replicate_NumericIfLi10EE8peekDataEv @2152
    _ZN22ZCom_Replicate_NumericIfLi10EE8setValueEPf @2153
    _ZN22ZCom_Replicate_NumericIfLi10EE8setValueEhf @2154
    _ZN22ZCom_Replicate_NumericIfLi10EEC1EPfP18ZCom_RSetupNumeric @2155
    _ZN22ZCom_Replicate_NumericIfLi10EEC1EPfhhhhss @2156
    _ZN22ZCom_Replicate_NumericIfLi10EEC2EPfP18ZCom_RSetupNumeric @2157
    _ZN22ZCom_Replicate_NumericIfLi10EEC2EPfhhhhss @2158
    _ZN22ZCom_Replicate_NumericIfLi10EED0Ev @2159
    _ZN22ZCom_Replicate_NumericIfLi10EED1Ev @2160
    _ZN22ZCom_Replicate_NumericIfLi10EED2Ev @2161
    _ZN22ZCom_Replicate_NumericIfLi11EE10checkStateEv @2162
    _ZN22ZCom_Replicate_NumericIfLi11EE10unpackDataEP14ZCom_BitStreambj @2163
    _ZN22ZCom_Replicate_NumericIfLi11EE13clearPeekDataEv @2164
    _ZN22ZCom_Replicate_NumericIfLi11EE7ProcessE14eZCom_NodeRolej @2165
    _ZN22ZCom_Replicate_NumericIfLi11EE8getValueEh @2166
    _ZN22ZCom_Replicate_NumericIfLi11EE8getValueEv @2167
    _ZN22ZCom_Replicate_NumericIfLi11EE8packDataEP14ZCom_BitStream @2168
    _ZN22ZCom_Replicate_NumericIfLi11EE8peekDataEv @2169
    _ZN22ZCom_Replicate_NumericIfLi11EE8setValueEPf @2170
    _ZN22ZCom_Replicate_NumericIfLi11EE8setValueEhf @2171
    _ZN22ZCom_Replicate_NumericIfLi11EEC1EPfP18ZCom_RSetupNumeric @2172
    _ZN22ZCom_Replicate_NumericIfLi11EEC1EPfhhhhss @2173
    _ZN22ZCom_Replicate_NumericIfLi11EEC2EPfP18ZCom_RSetupNumeric @2174
    _ZN22ZCom_Replicate_NumericIfLi11EEC2EPfhhhhss @2175
    _ZN22ZCom_Replicate_NumericIfLi11EED0Ev @2176
    _ZN22ZCom_Replicate_NumericIfLi11EED1Ev @2177
    _ZN22ZCom_Replicate_NumericIfLi11EED2Ev @2178
    _ZN22ZCom_Replicate_NumericIfLi12EE10checkStateEv @2179
    _ZN22ZCom_Replicate_NumericIfLi12EE10unpackDataEP14ZCom_BitStreambj @2180
    _ZN22ZCom_Replicate_NumericIfLi12EE13clearPeekDataEv @2181
    _ZN22ZCom_Replicate_NumericIfLi12EE7ProcessE14eZCom_NodeRolej @2182
    _ZN22ZCom_Replicate_NumericIfLi12EE8getValueEh @2183
    _ZN22ZCom_Replicate_NumericIfLi12EE8getValueEv @2184
    _ZN22ZCom_Replicate_NumericIfLi12EE8packDataEP14ZCom_BitStream @2185
    _ZN22ZCom_Replicate_NumericIfLi12EE8peekDataEv @2186
    _ZN22ZCom_Replicate_NumericIfLi12EE8setValueEPf @2187
    _ZN22ZCom_Replicate_NumericIfLi12EE8setValueEhf @2188
    _ZN22ZCom_Replicate_NumericIfLi12EEC1EPfP18ZCom_RSetupNumeric @2189
    _ZN22ZCom_Replicate_NumericIfLi12EEC1EPfhhhhss @2190
    _ZN22ZCom_Replicate_NumericIfLi12EEC2EPfP18ZCom_RSetupNumeric @2191
    _ZN22ZCom_Replicate_NumericIfLi12EEC2EPfhhhhss @2192
    _ZN22ZCom_Replicate_NumericIfLi12EED0Ev @2193
    _ZN22ZCom_Replicate_NumericIfLi12EED1Ev @2194
    _ZN22ZCom_Replicate_NumericIfLi12EED2Ev @2195
    _ZN22ZCom_Replicate_NumericIfLi1EE10checkStateEv @2196
    _ZN22ZCom_Replicate_NumericIfLi1EE10unpackDataEP14ZCom_BitStreambj @2197
    _ZN22ZCom_Replicate_NumericIfLi1EE13clearPeekDataEv @2198
    _ZN22ZCom_Replicate_NumericIfLi1EE7ProcessE14eZCom_NodeRolej @2199
    _ZN22ZCom_Replicate_NumericIfLi1EE8getValueEh @2200
    _ZN22ZCom_Replicate_NumericIfLi1EE8getValueEv @2201
    _ZN22ZCom_Replicate_NumericIfLi1EE8packDataEP14ZCom_BitStream @2202
    _ZN22ZCom_Replicate_NumericIfLi1EE8peekDataEv @2203
    _ZN22ZCom_Replicate_NumericIfLi1EE8setValueEPf @2204
    _ZN22ZCom_Replicate_NumericIfLi1EE8setValueEhf @2205
    _ZN22ZCom_Replicate_NumericIfLi1EEC1EPfP18ZCom_RSetupNumeric @2206
    _ZN22ZCom_Replicate_NumericIfLi1EEC1EPfhhhhss @2207
    _ZN22ZCom_Replicate_NumericIfLi1EEC2EPfP18ZCom_RSetupNumeric @2208
    _ZN22ZCom_Replicate_NumericIfLi1EEC2EPfhhhhss @2209
    _ZN22ZCom_Replicate_NumericIfLi1EED0Ev @2210
    _ZN22ZCom_Replicate_NumericIfLi1EED1Ev @2211
    _ZN22ZCom_Replicate_NumericIfLi1EED2Ev @2212
    _ZN22ZCom_Replicate_NumericIfLi2EE10checkStateEv @2213
    _ZN22ZCom_Replicate_NumericIfLi2EE10unpackDataEP14ZCom_BitStreambj @2214
    _ZN22ZCom_Replicate_NumericIfLi2EE13clearPeekDataEv @2215
    _ZN22ZCom_Replicate_NumericIfLi2EE7ProcessE14eZCom_NodeRolej @2216
    _ZN22ZCom_Replicate_NumericIfLi2EE8getValueEh @2217
    _ZN22ZCom_Replicate_NumericIfLi2EE8getValueEv @2218
    _ZN22ZCom_Replicate_NumericIfLi2EE8packDataEP14ZCom_BitStream @2219
    _ZN22ZCom_Replicate_NumericIfLi2EE8peekDataEv @2220
    _ZN22ZCom_Replicate_NumericIfLi2EE8setValueEPf @2221
    _ZN22ZCom_Replicate_NumericIfLi2EE8setValueEhf @2222
    _ZN22ZCom_Replicate_NumericIfLi2EEC1EPfP18ZCom_RSetupNumeric @2223
    _ZN22ZCom_Replicate_NumericIfLi2EEC1EPfhhhhss @2224
    _ZN22ZCom_Replicate_NumericIfLi2EEC2EPfP18ZCom_RSetupNumeric @2225
    _ZN22ZCom_Replicate_NumericIfLi2EEC2EPfhhhhss @2226
    _ZN22ZCom_Replicate_NumericIfLi2EED0Ev @2227
    _ZN22ZCom_Replicate_NumericIfLi2EED1Ev @2228
    _ZN22ZCom_Replicate_NumericIfLi2EED2Ev @2229
    _ZN22ZCom_Replicate_NumericIfLi3EE10checkStateEv @2230
    _ZN22ZCom_Replicate_NumericIfLi3EE10unpackDataEP14ZCom_BitStreambj @2231
    _ZN22ZCom_Replicate_NumericIfLi3EE13clearPeekDataEv @2232
    _ZN22ZCom_Replicate_NumericIfLi3EE7ProcessE14eZCom_NodeRolej @2233
    _ZN22ZCom_Replicate_NumericIfLi3EE8getValueEh @2234
    _ZN22ZCom_Replicate_NumericIfLi3EE8getValueEv @2235
    _ZN22ZCom_Replicate_NumericIfLi3EE8packDataEP14ZCom_BitStream @2236
    _ZN22ZCom_Replicate_NumericIfLi3EE8peekDataEv @2237
    _ZN22ZCom_Replicate_NumericIfLi3EE8setValueEPf @2238
    _ZN22ZCom_Replicate_NumericIfLi3EE8setValueEhf @2239
    _ZN22ZCom_Replicate_NumericIfLi3EEC1EPfP18ZCom_RSetupNumeric @2240
    _ZN22ZCom_Replicate_NumericIfLi3EEC1EPfhhhhss @2241
    _ZN22ZCom_Replicate_NumericIfLi3EEC2EPfP18ZCom_RSetupNumeric @2242
    _ZN22ZCom_Replicate_NumericIfLi3EEC2EPfhhhhss @2243
    _ZN22ZCom_Replicate_NumericIfLi3EED0Ev @2244
    _ZN22ZCom_Replicate_NumericIfLi3EED1Ev @2245
    _ZN22ZCom_Replicate_NumericIfLi3EED2Ev @2246
    _ZN22ZCom_Replicate_NumericIfLi4EE10checkStateEv @2247
    _ZN22ZCom_Replicate_NumericIfLi4EE10unpackDataEP14ZCom_BitStreambj @2248
    _ZN22ZCom_Replicate_NumericIfLi4EE13clearPeekDataEv @2249
    _ZN22ZCom_Replicate_NumericIfLi4EE7ProcessE14eZCom_NodeRolej @2250
    _ZN22ZCom_Replicate_NumericIfLi4EE8getValueEh @2251
    _ZN22ZCom_Replicate_NumericIfLi4EE8getValueEv @2252
    _ZN22ZCom_Replicate_NumericIfLi4EE8packDataEP14ZCom_BitStream @2253
    _ZN22ZCom_Replicate_NumericIfLi4EE8peekDataEv @2254
    _ZN22ZCom_Replicate_NumericIfLi4EE8setValueEPf @2255
    _ZN22ZCom_Replicate_NumericIfLi4EE8setValueEhf @2256
    _ZN22ZCom_Replicate_NumericIfLi4EEC1EPfP18ZCom_RSetupNumeric @2257
    _ZN22ZCom_Replicate_NumericIfLi4EEC1EPfhhhhss @2258
    _ZN22ZCom_Replicate_NumericIfLi4EEC2EPfP18ZCom_RSetupNumeric @2259
    _ZN22ZCom_Replicate_NumericIfLi4EEC2EPfhhhhss @2260
    _ZN22ZCom_Replicate_NumericIfLi4EED0Ev @2261
    _ZN22ZCom_Replicate_NumericIfLi4EED1Ev @2262
    _ZN22ZCom_Replicate_NumericIfLi4EED2Ev @2263
    _ZN22ZCom_Replicate_NumericIfLi5EE10checkStateEv @2264
    _ZN22ZCom_Replicate_NumericIfLi5EE10unpackDataEP14ZCom_BitStreambj @2265
    _ZN22ZCom_Replicate_NumericIfLi5EE13clearPeekDataEv @2266
    _ZN22ZCom_Replicate_NumericIfLi5EE7ProcessE14eZCom_NodeRolej @2267
    _ZN22ZCom_Replicate_NumericIfLi5EE8getValueEh @2268
    _ZN22ZCom_Replicate_NumericIfLi5EE8getValueEv @2269
    _ZN22ZCom_Replicate_NumericIfLi5EE8packDataEP14ZCom_BitStream @2270
    _ZN22ZCom_Replicate_NumericIfLi5EE8peekDataEv @2271
    _ZN22ZCom_Replicate_NumericIfLi5EE8setValueEPf @2272
    _ZN22ZCom_Replicate_NumericIfLi5EE8setValueEhf @2273
    _ZN22ZCom_Replicate_NumericIfLi5EEC1EPfP18ZCom_RSetupNumeric @2274
    _ZN22ZCom_Replicate_NumericIfLi5EEC1EPfhhhhss @2275
    _ZN22ZCom_Replicate_NumericIfLi5EEC2EPfP18ZCom_RSetupNumeric @2276
    _ZN22ZCom_Replicate_NumericIfLi5EEC2EPfhhhhss @2277
    _ZN22ZCom_Replicate_NumericIfLi5EED0Ev @2278
    _ZN22ZCom_Replicate_NumericIfLi5EED1Ev @2279
    _ZN22ZCom_Replicate_NumericIfLi5EED2Ev @2280
    _ZN22ZCom_Replicate_NumericIfLi6EE10checkStateEv @2281
    _ZN22ZCom_Replicate_NumericIfLi6EE10unpackDataEP14ZCom_BitStreambj @2282
    _ZN22ZCom_Replicate_NumericIfLi6EE13clearPeekDataEv @2283
    _ZN22ZCom_Replicate_NumericIfLi6EE7ProcessE14eZCom_NodeRolej @2284
    _ZN22ZCom_Replicate_NumericIfLi6EE8getValueEh @2285
    _ZN22ZCom_Replicate_NumericIfLi6EE8getValueEv @2286
    _ZN22ZCom_Replicate_NumericIfLi6EE8packDataEP14ZCom_BitStream @2287
    _ZN22ZCom_Replicate_NumericIfLi6EE8peekDataEv @2288
    _ZN22ZCom_Replicate_NumericIfLi6EE8setValueEPf @2289
    _ZN22ZCom_Replicate_NumericIfLi6EE8setValueEhf @2290
    _ZN22ZCom_Replicate_NumericIfLi6EEC1EPfP18ZCom_RSetupNumeric @2291
    _ZN22ZCom_Replicate_NumericIfLi6EEC1EPfhhhhss @2292
    _ZN22ZCom_Replicate_NumericIfLi6EEC2EPfP18ZCom_RSetupNumeric @2293
    _ZN22ZCom_Replicate_NumericIfLi6EEC2EPfhhhhss @2294
    _ZN22ZCom_Replicate_NumericIfLi6EED0Ev @2295
    _ZN22ZCom_Replicate_NumericIfLi6EED1Ev @2296
    _ZN22ZCom_Replicate_NumericIfLi6EED2Ev @2297
    _ZN22ZCom_Replicate_NumericIfLi7EE10checkStateEv @2298
    _ZN22ZCom_Replicate_NumericIfLi7EE10unpackDataEP14ZCom_BitStreambj @2299
    _ZN22ZCom_Replicate_NumericIfLi7EE13clearPeekDataEv @2300
    _ZN22ZCom_Replicate_NumericIfLi7EE7ProcessE14eZCom_NodeRolej @2301
    _ZN22ZCom_Replicate_NumericIfLi7EE8getValueEh @2302
    _ZN22ZCom_Replicate_NumericIfLi7EE8getValueEv @2303
    _ZN22ZCom_Replicate_NumericIfLi7EE8packDataEP14ZCom_BitStream @2304
    _ZN22ZCom_Replicate_NumericIfLi7EE8peekDataEv @2305
    _ZN22ZCom_Replicate_NumericIfLi7EE8setValueEPf @2306
    _ZN22ZCom_Replicate_NumericIfLi7EE8setValueEhf @2307
    _ZN22ZCom_Replicate_NumericIfLi7EEC1EPfP18ZCom_RSetupNumeric @2308
    _ZN22ZCom_Replicate_NumericIfLi7EEC1EPfhhhhss @2309
    _ZN22ZCom_Replicate_NumericIfLi7EEC2EPfP18ZCom_RSetupNumeric @2310
    _ZN22ZCom_Replicate_NumericIfLi7EEC2EPfhhhhss @2311
    _ZN22ZCom_Replicate_NumericIfLi7EED0Ev @2312
    _ZN22ZCom_Replicate_NumericIfLi7EED1Ev @2313
    _ZN22ZCom_Replicate_NumericIfLi7EED2Ev @2314
    _ZN22ZCom_Replicate_NumericIfLi8EE10checkStateEv @2315
    _ZN22ZCom_Replicate_NumericIfLi8EE10unpackDataEP14ZCom_BitStreambj @2316
    _ZN22ZCom_Replicate_NumericIfLi8EE13clearPeekDataEv @2317
    _ZN22ZCom_Replicate_NumericIfLi8EE7ProcessE14eZCom_NodeRolej @2318
    _ZN22ZCom_Replicate_NumericIfLi8EE8getValueEh @2319
    _ZN22ZCom_Replicate_NumericIfLi8EE8getValueEv @2320
    _ZN22ZCom_Replicate_NumericIfLi8EE8packDataEP14ZCom_BitStream @2321
    _ZN22ZCom_Replicate_NumericIfLi8EE8peekDataEv @2322
    _ZN22ZCom_Replicate_NumericIfLi8EE8setValueEPf @2323
    _ZN22ZCom_Replicate_NumericIfLi8EE8setValueEhf @2324
    _ZN22ZCom_Replicate_NumericIfLi8EEC1EPfP18ZCom_RSetupNumeric @2325
    _ZN22ZCom_Replicate_NumericIfLi8EEC1EPfhhhhss @2326
    _ZN22ZCom_Replicate_NumericIfLi8EEC2EPfP18ZCom_RSetupNumeric @2327
    _ZN22ZCom_Replicate_NumericIfLi8EEC2EPfhhhhss @2328
    _ZN22ZCom_Replicate_NumericIfLi8EED0Ev @2329
    _ZN22ZCom_Replicate_NumericIfLi8EED1Ev @2330
    _ZN22ZCom_Replicate_NumericIfLi8EED2Ev @2331
    _ZN22ZCom_Replicate_NumericIfLi9EE10checkStateEv @2332
    _ZN22ZCom_Replicate_NumericIfLi9EE10unpackDataEP14ZCom_BitStreambj @2333
    _ZN22ZCom_Replicate_NumericIfLi9EE13clearPeekDataEv @2334
    _ZN22ZCom_Replicate_NumericIfLi9EE7ProcessE14eZCom_NodeRolej @2335
    _ZN22ZCom_Replicate_NumericIfLi9EE8getValueEh @2336
    _ZN22ZCom_Replicate_NumericIfLi9EE8getValueEv @2337
    _ZN22ZCom_Replicate_NumericIfLi9EE8packDataEP14ZCom_BitStream @2338
    _ZN22ZCom_Replicate_NumericIfLi9EE8peekDataEv @2339
    _ZN22ZCom_Replicate_NumericIfLi9EE8setValueEPf @2340
    _ZN22ZCom_Replicate_NumericIfLi9EE8setValueEhf @2341
    _ZN22ZCom_Replicate_NumericIfLi9EEC1EPfP18ZCom_RSetupNumeric @2342
    _ZN22ZCom_Replicate_NumericIfLi9EEC1EPfhhhhss @2343
    _ZN22ZCom_Replicate_NumericIfLi9EEC2EPfP18ZCom_RSetupNumeric @2344
    _ZN22ZCom_Replicate_NumericIfLi9EEC2EPfhhhhss @2345
    _ZN22ZCom_Replicate_NumericIfLi9EED0Ev @2346
    _ZN22ZCom_Replicate_NumericIfLi9EED1Ev @2347
    _ZN22ZCom_Replicate_NumericIfLi9EED2Ev @2348
    _ZN22ZCom_Replicate_NumericIiLi10EE10checkStateEv @2349
    _ZN22ZCom_Replicate_NumericIiLi10EE10unpackDataEP14ZCom_BitStreambj @2350
    _ZN22ZCom_Replicate_NumericIiLi10EE13clearPeekDataEv @2351
    _ZN22ZCom_Replicate_NumericIiLi10EE7ProcessE14eZCom_NodeRolej @2352
    _ZN22ZCom_Replicate_NumericIiLi10EE8getValueEh @2353
    _ZN22ZCom_Replicate_NumericIiLi10EE8getValueEv @2354
    _ZN22ZCom_Replicate_NumericIiLi10EE8packDataEP14ZCom_BitStream @2355
    _ZN22ZCom_Replicate_NumericIiLi10EE8peekDataEv @2356
    _ZN22ZCom_Replicate_NumericIiLi10EE8setValueEPi @2357
    _ZN22ZCom_Replicate_NumericIiLi10EE8setValueEhi @2358
    _ZN22ZCom_Replicate_NumericIiLi10EEC1EPiP18ZCom_RSetupNumeric @2359
    _ZN22ZCom_Replicate_NumericIiLi10EEC1EPihhhhss @2360
    _ZN22ZCom_Replicate_NumericIiLi10EEC2EPiP18ZCom_RSetupNumeric @2361
    _ZN22ZCom_Replicate_NumericIiLi10EEC2EPihhhhss @2362
    _ZN22ZCom_Replicate_NumericIiLi10EED0Ev @2363
    _ZN22ZCom_Replicate_NumericIiLi10EED1Ev @2364
    _ZN22ZCom_Replicate_NumericIiLi10EED2Ev @2365
    _ZN22ZCom_Replicate_NumericIiLi11EE10checkStateEv @2366
    _ZN22ZCom_Replicate_NumericIiLi11EE10unpackDataEP14ZCom_BitStreambj @2367
    _ZN22ZCom_Replicate_NumericIiLi11EE13clearPeekDataEv @2368
    _ZN22ZCom_Replicate_NumericIiLi11EE7ProcessE14eZCom_NodeRolej @2369
    _ZN22ZCom_Replicate_NumericIiLi11EE8getValueEh @2370
    _ZN22ZCom_Replicate_NumericIiLi11EE8getValueEv @2371
    _ZN22ZCom_Replicate_NumericIiLi11EE8packDataEP14ZCom_BitStream @2372
    _ZN22ZCom_Replicate_NumericIiLi11EE8peekDataEv @2373
    _ZN22ZCom_Replicate_NumericIiLi11EE8setValueEPi @2374
    _ZN22ZCom_Replicate_NumericIiLi11EE8setValueEhi @2375
    _ZN22ZCom_Replicate_NumericIiLi11EEC1EPiP18ZCom_RSetupNumeric @2376
    _ZN22ZCom_Replicate_NumericIiLi11EEC1EPihhhhss @2377
    _ZN22ZCom_Replicate_NumericIiLi11EEC2EPiP18ZCom_RSetupNumeric @2378
    _ZN22ZCom_Replicate_NumericIiLi11EEC2EPihhhhss @2379
    _ZN22ZCom_Replicate_NumericIiLi11EED0Ev @2380
    _ZN22ZCom_Replicate_NumericIiLi11EED1Ev @2381
    _ZN22ZCom_Replicate_NumericIiLi11EED2Ev @2382
    _ZN22ZCom_Replicate_NumericIiLi12EE10checkStateEv @2383
    _ZN22ZCom_Replicate_NumericIiLi12EE10unpackDataEP14ZCom_BitStreambj @2384
    _ZN22ZCom_Replicate_NumericIiLi12EE13clearPeekDataEv @2385
    _ZN22ZCom_Replicate_NumericIiLi12EE7ProcessE14eZCom_NodeRolej @2386
    _ZN22ZCom_Replicate_NumericIiLi12EE8getValueEh @2387
    _ZN22ZCom_Replicate_NumericIiLi12EE8getValueEv @2388
    _ZN22ZCom_Replicate_NumericIiLi12EE8packDataEP14ZCom_BitStream @2389
    _ZN22ZCom_Replicate_NumericIiLi12EE8peekDataEv @2390
    _ZN22ZCom_Replicate_NumericIiLi12EE8setValueEPi @2391
    _ZN22ZCom_Replicate_NumericIiLi12EE8setValueEhi @2392
    _ZN22ZCom_Replicate_NumericIiLi12EEC1EPiP18ZCom_RSetupNumeric @2393
    _ZN22ZCom_Replicate_NumericIiLi12EEC1EPihhhhss @2394
    _ZN22ZCom_Replicate_NumericIiLi12EEC2EPiP18ZCom_RSetupNumeric @2395
    _ZN22ZCom_Replicate_NumericIiLi12EEC2EPihhhhss @2396
    _ZN22ZCom_Replicate_NumericIiLi12EED0Ev @2397
    _ZN22ZCom_Replicate_NumericIiLi12EED1Ev @2398
    _ZN22ZCom_Replicate_NumericIiLi12EED2Ev @2399
    _ZN22ZCom_Replicate_NumericIiLi1EE10checkStateEv @2400
    _ZN22ZCom_Replicate_NumericIiLi1EE10unpackDataEP14ZCom_BitStreambj @2401
    _ZN22ZCom_Replicate_NumericIiLi1EE13clearPeekDataEv @2402
    _ZN22ZCom_Replicate_NumericIiLi1EE7ProcessE14eZCom_NodeRolej @2403
    _ZN22ZCom_Replicate_NumericIiLi1EE8getValueEh @2404
    _ZN22ZCom_Replicate_NumericIiLi1EE8getValueEv @2405
    _ZN22ZCom_Replicate_NumericIiLi1EE8packDataEP14ZCom_BitStream @2406
    _ZN22ZCom_Replicate_NumericIiLi1EE8peekDataEv @2407
    _ZN22ZCom_Replicate_NumericIiLi1EE8setValueEPi @2408
    _ZN22ZCom_Replicate_NumericIiLi1EE8setValueEhi @2409
    _ZN22ZCom_Replicate_NumericIiLi1EEC1EPiP18ZCom_RSetupNumeric @2410
    _ZN22ZCom_Replicate_NumericIiLi1EEC1EPihhhhss @2411
    _ZN22ZCom_Replicate_NumericIiLi1EEC2EPiP18ZCom_RSetupNumeric @2412
    _ZN22ZCom_Replicate_NumericIiLi1EEC2EPihhhhss @2413
    _ZN22ZCom_Replicate_NumericIiLi1EED0Ev @2414
    _ZN22ZCom_Replicate_NumericIiLi1EED1Ev @2415
    _ZN22ZCom_Replicate_NumericIiLi1EED2Ev @2416
    _ZN22ZCom_Replicate_NumericIiLi2EE10checkStateEv @2417
    _ZN22ZCom_Replicate_NumericIiLi2EE10unpackDataEP14ZCom_BitStreambj @2418
    _ZN22ZCom_Replicate_NumericIiLi2EE13clearPeekDataEv @2419
    _ZN22ZCom_Replicate_NumericIiLi2EE7ProcessE14eZCom_NodeRolej @2420
    _ZN22ZCom_Replicate_NumericIiLi2EE8getValueEh @2421
    _ZN22ZCom_Replicate_NumericIiLi2EE8getValueEv @2422
    _ZN22ZCom_Replicate_NumericIiLi2EE8packDataEP14ZCom_BitStream @2423
    _ZN22ZCom_Replicate_NumericIiLi2EE8peekDataEv @2424
    _ZN22ZCom_Replicate_NumericIiLi2EE8setValueEPi @2425
    _ZN22ZCom_Replicate_NumericIiLi2EE8setValueEhi @2426
    _ZN22ZCom_Replicate_NumericIiLi2EEC1EPiP18ZCom_RSetupNumeric @2427
    _ZN22ZCom_Replicate_NumericIiLi2EEC1EPihhhhss @2428
    _ZN22ZCom_Replicate_NumericIiLi2EEC2EPiP18ZCom_RSetupNumeric @2429
    _ZN22ZCom_Replicate_NumericIiLi2EEC2EPihhhhss @2430
    _ZN22ZCom_Replicate_NumericIiLi2EED0Ev @2431
    _ZN22ZCom_Replicate_NumericIiLi2EED1Ev @2432
    _ZN22ZCom_Replicate_NumericIiLi2EED2Ev @2433
    _ZN22ZCom_Replicate_NumericIiLi3EE10checkStateEv @2434
    _ZN22ZCom_Replicate_NumericIiLi3EE10unpackDataEP14ZCom_BitStreambj @2435
    _ZN22ZCom_Replicate_NumericIiLi3EE13clearPeekDataEv @2436
    _ZN22ZCom_Replicate_NumericIiLi3EE7ProcessE14eZCom_NodeRolej @2437
    _ZN22ZCom_Replicate_NumericIiLi3EE8getValueEh @2438
    _ZN22ZCom_Replicate_NumericIiLi3EE8getValueEv @2439
    _ZN22ZCom_Replicate_NumericIiLi3EE8packDataEP14ZCom_BitStream @2440
    _ZN22ZCom_Replicate_NumericIiLi3EE8peekDataEv @2441
    _ZN22ZCom_Replicate_NumericIiLi3EE8setValueEPi @2442
    _ZN22ZCom_Replicate_NumericIiLi3EE8setValueEhi @2443
    _ZN22ZCom_Replicate_NumericIiLi3EEC1EPiP18ZCom_RSetupNumeric @2444
    _ZN22ZCom_Replicate_NumericIiLi3EEC1EPihhhhss @2445
    _ZN22ZCom_Replicate_NumericIiLi3EEC2EPiP18ZCom_RSetupNumeric @2446
    _ZN22ZCom_Replicate_NumericIiLi3EEC2EPihhhhss @2447
    _ZN22ZCom_Replicate_NumericIiLi3EED0Ev @2448
    _ZN22ZCom_Replicate_NumericIiLi3EED1Ev @2449
    _ZN22ZCom_Replicate_NumericIiLi3EED2Ev @2450
    _ZN22ZCom_Replicate_NumericIiLi4EE10checkStateEv @2451
    _ZN22ZCom_Replicate_NumericIiLi4EE10unpackDataEP14ZCom_BitStreambj @2452
    _ZN22ZCom_Replicate_NumericIiLi4EE13clearPeekDataEv @2453
    _ZN22ZCom_Replicate_NumericIiLi4EE7ProcessE14eZCom_NodeRolej @2454
    _ZN22ZCom_Replicate_NumericIiLi4EE8getValueEh @2455
    _ZN22ZCom_Replicate_NumericIiLi4EE8getValueEv @2456
    _ZN22ZCom_Replicate_NumericIiLi4EE8packDataEP14ZCom_BitStream @2457
    _ZN22ZCom_Replicate_NumericIiLi4EE8peekDataEv @2458
    _ZN22ZCom_Replicate_NumericIiLi4EE8setValueEPi @2459
    _ZN22ZCom_Replicate_NumericIiLi4EE8setValueEhi @2460
    _ZN22ZCom_Replicate_NumericIiLi4EEC1EPiP18ZCom_RSetupNumeric @2461
    _ZN22ZCom_Replicate_NumericIiLi4EEC1EPihhhhss @2462
    _ZN22ZCom_Replicate_NumericIiLi4EEC2EPiP18ZCom_RSetupNumeric @2463
    _ZN22ZCom_Replicate_NumericIiLi4EEC2EPihhhhss @2464
    _ZN22ZCom_Replicate_NumericIiLi4EED0Ev @2465
    _ZN22ZCom_Replicate_NumericIiLi4EED1Ev @2466
    _ZN22ZCom_Replicate_NumericIiLi4EED2Ev @2467
    _ZN22ZCom_Replicate_NumericIiLi5EE10checkStateEv @2468
    _ZN22ZCom_Replicate_NumericIiLi5EE10unpackDataEP14ZCom_BitStreambj @2469
    _ZN22ZCom_Replicate_NumericIiLi5EE13clearPeekDataEv @2470
    _ZN22ZCom_Replicate_NumericIiLi5EE7ProcessE14eZCom_NodeRolej @2471
    _ZN22ZCom_Replicate_NumericIiLi5EE8getValueEh @2472
    _ZN22ZCom_Replicate_NumericIiLi5EE8getValueEv @2473
    _ZN22ZCom_Replicate_NumericIiLi5EE8packDataEP14ZCom_BitStream @2474
    _ZN22ZCom_Replicate_NumericIiLi5EE8peekDataEv @2475
    _ZN22ZCom_Replicate_NumericIiLi5EE8setValueEPi @2476
    _ZN22ZCom_Replicate_NumericIiLi5EE8setValueEhi @2477
    _ZN22ZCom_Replicate_NumericIiLi5EEC1EPiP18ZCom_RSetupNumeric @2478
    _ZN22ZCom_Replicate_NumericIiLi5EEC1EPihhhhss @2479
    _ZN22ZCom_Replicate_NumericIiLi5EEC2EPiP18ZCom_RSetupNumeric @2480
    _ZN22ZCom_Replicate_NumericIiLi5EEC2EPihhhhss @2481
    _ZN22ZCom_Replicate_NumericIiLi5EED0Ev @2482
    _ZN22ZCom_Replicate_NumericIiLi5EED1Ev @2483
    _ZN22ZCom_Replicate_NumericIiLi5EED2Ev @2484
    _ZN22ZCom_Replicate_NumericIiLi6EE10checkStateEv @2485
    _ZN22ZCom_Replicate_NumericIiLi6EE10unpackDataEP14ZCom_BitStreambj @2486
    _ZN22ZCom_Replicate_NumericIiLi6EE13clearPeekDataEv @2487
    _ZN22ZCom_Replicate_NumericIiLi6EE7ProcessE14eZCom_NodeRolej @2488
    _ZN22ZCom_Replicate_NumericIiLi6EE8getValueEh @2489
    _ZN22ZCom_Replicate_NumericIiLi6EE8getValueEv @2490
    _ZN22ZCom_Replicate_NumericIiLi6EE8packDataEP14ZCom_BitStream @2491
    _ZN22ZCom_Replicate_NumericIiLi6EE8peekDataEv @2492
    _ZN22ZCom_Replicate_NumericIiLi6EE8setValueEPi @2493
    _ZN22ZCom_Replicate_NumericIiLi6EE8setValueEhi @2494
    _ZN22ZCom_Replicate_NumericIiLi6EEC1EPiP18ZCom_RSetupNumeric @2495
    _ZN22ZCom_Replicate_NumericIiLi6EEC1EPihhhhss @2496
    _ZN22ZCom_Replicate_NumericIiLi6EEC2EPiP18ZCom_RSetupNumeric @2497
    _ZN22ZCom_Replicate_NumericIiLi6EEC2EPihhhhss @2498
    _ZN22ZCom_Replicate_NumericIiLi6EED0Ev @2499
    _ZN22ZCom_Replicate_NumericIiLi6EED1Ev @2500
    _ZN22ZCom_Replicate_NumericIiLi6EED2Ev @2501
    _ZN22ZCom_Replicate_NumericIiLi7EE10checkStateEv @2502
    _ZN22ZCom_Replicate_NumericIiLi7EE10unpackDataEP14ZCom_BitStreambj @2503
    _ZN22ZCom_Replicate_NumericIiLi7EE13clearPeekDataEv @2504
    _ZN22ZCom_Replicate_NumericIiLi7EE7ProcessE14eZCom_NodeRolej @2505
    _ZN22ZCom_Replicate_NumericIiLi7EE8getValueEh @2506
    _ZN22ZCom_Replicate_NumericIiLi7EE8getValueEv @2507
    _ZN22ZCom_Replicate_NumericIiLi7EE8packDataEP14ZCom_BitStream @2508
    _ZN22ZCom_Replicate_NumericIiLi7EE8peekDataEv @2509
    _ZN22ZCom_Replicate_NumericIiLi7EE8setValueEPi @2510
    _ZN22ZCom_Replicate_NumericIiLi7EE8setValueEhi @2511
    _ZN22ZCom_Replicate_NumericIiLi7EEC1EPiP18ZCom_RSetupNumeric @2512
    _ZN22ZCom_Replicate_NumericIiLi7EEC1EPihhhhss @2513
    _ZN22ZCom_Replicate_NumericIiLi7EEC2EPiP18ZCom_RSetupNumeric @2514
    _ZN22ZCom_Replicate_NumericIiLi7EEC2EPihhhhss @2515
    _ZN22ZCom_Replicate_NumericIiLi7EED0Ev @2516
    _ZN22ZCom_Replicate_NumericIiLi7EED1Ev @2517
    _ZN22ZCom_Replicate_NumericIiLi7EED2Ev @2518
    _ZN22ZCom_Replicate_NumericIiLi8EE10checkStateEv @2519
    _ZN22ZCom_Replicate_NumericIiLi8EE10unpackDataEP14ZCom_BitStreambj @2520
    _ZN22ZCom_Replicate_NumericIiLi8EE13clearPeekDataEv @2521
    _ZN22ZCom_Replicate_NumericIiLi8EE7ProcessE14eZCom_NodeRolej @2522
    _ZN22ZCom_Replicate_NumericIiLi8EE8getValueEh @2523
    _ZN22ZCom_Replicate_NumericIiLi8EE8getValueEv @2524
    _ZN22ZCom_Replicate_NumericIiLi8EE8packDataEP14ZCom_BitStream @2525
    _ZN22ZCom_Replicate_NumericIiLi8EE8peekDataEv @2526
    _ZN22ZCom_Replicate_NumericIiLi8EE8setValueEPi @2527
    _ZN22ZCom_Replicate_NumericIiLi8EE8setValueEhi @2528
    _ZN22ZCom_Replicate_NumericIiLi8EEC1EPiP18ZCom_RSetupNumeric @2529
    _ZN22ZCom_Replicate_NumericIiLi8EEC1EPihhhhss @2530
    _ZN22ZCom_Replicate_NumericIiLi8EEC2EPiP18ZCom_RSetupNumeric @2531
    _ZN22ZCom_Replicate_NumericIiLi8EEC2EPihhhhss @2532
    _ZN22ZCom_Replicate_NumericIiLi8EED0Ev @2533
    _ZN22ZCom_Replicate_NumericIiLi8EED1Ev @2534
    _ZN22ZCom_Replicate_NumericIiLi8EED2Ev @2535
    _ZN22ZCom_Replicate_NumericIiLi9EE10checkStateEv @2536
    _ZN22ZCom_Replicate_NumericIiLi9EE10unpackDataEP14ZCom_BitStreambj @2537
    _ZN22ZCom_Replicate_NumericIiLi9EE13clearPeekDataEv @2538
    _ZN22ZCom_Replicate_NumericIiLi9EE7ProcessE14eZCom_NodeRolej @2539
    _ZN22ZCom_Replicate_NumericIiLi9EE8getValueEh @2540
    _ZN22ZCom_Replicate_NumericIiLi9EE8getValueEv @2541
    _ZN22ZCom_Replicate_NumericIiLi9EE8packDataEP14ZCom_BitStream @2542
    _ZN22ZCom_Replicate_NumericIiLi9EE8peekDataEv @2543
    _ZN22ZCom_Replicate_NumericIiLi9EE8setValueEPi @2544
    _ZN22ZCom_Replicate_NumericIiLi9EE8setValueEhi @2545
    _ZN22ZCom_Replicate_NumericIiLi9EEC1EPiP18ZCom_RSetupNumeric @2546
    _ZN22ZCom_Replicate_NumericIiLi9EEC1EPihhhhss @2547
    _ZN22ZCom_Replicate_NumericIiLi9EEC2EPiP18ZCom_RSetupNumeric @2548
    _ZN22ZCom_Replicate_NumericIiLi9EEC2EPihhhhss @2549
    _ZN22ZCom_Replicate_NumericIiLi9EED0Ev @2550
    _ZN22ZCom_Replicate_NumericIiLi9EED1Ev @2551
    _ZN22ZCom_Replicate_NumericIiLi9EED2Ev @2552
    _ZN22ZCom_Replicate_NumericIjLi10EE10checkStateEv @2553
    _ZN22ZCom_Replicate_NumericIjLi10EE10unpackDataEP14ZCom_BitStreambj @2554
    _ZN22ZCom_Replicate_NumericIjLi10EE13clearPeekDataEv @2555
    _ZN22ZCom_Replicate_NumericIjLi10EE7ProcessE14eZCom_NodeRolej @2556
    _ZN22ZCom_Replicate_NumericIjLi10EE8getValueEh @2557
    _ZN22ZCom_Replicate_NumericIjLi10EE8getValueEv @2558
    _ZN22ZCom_Replicate_NumericIjLi10EE8packDataEP14ZCom_BitStream @2559
    _ZN22ZCom_Replicate_NumericIjLi10EE8peekDataEv @2560
    _ZN22ZCom_Replicate_NumericIjLi10EE8setValueEPj @2561
    _ZN22ZCom_Replicate_NumericIjLi10EE8setValueEhj @2562
    _ZN22ZCom_Replicate_NumericIjLi10EEC1EPjP18ZCom_RSetupNumeric @2563
    _ZN22ZCom_Replicate_NumericIjLi10EEC1EPjhhhhss @2564
    _ZN22ZCom_Replicate_NumericIjLi10EEC2EPjP18ZCom_RSetupNumeric @2565
    _ZN22ZCom_Replicate_NumericIjLi10EEC2EPjhhhhss @2566
    _ZN22ZCom_Replicate_NumericIjLi10EED0Ev @2567
    _ZN22ZCom_Replicate_NumericIjLi10EED1Ev @2568
    _ZN22ZCom_Replicate_NumericIjLi10EED2Ev @2569
    _ZN22ZCom_Replicate_NumericIjLi11EE10checkStateEv @2570
    _ZN22ZCom_Replicate_NumericIjLi11EE10unpackDataEP14ZCom_BitStreambj @2571
    _ZN22ZCom_Replicate_NumericIjLi11EE13clearPeekDataEv @2572
    _ZN22ZCom_Replicate_NumericIjLi11EE7ProcessE14eZCom_NodeRolej @2573
    _ZN22ZCom_Replicate_NumericIjLi11EE8getValueEh @2574
    _ZN22ZCom_Replicate_NumericIjLi11EE8getValueEv @2575
    _ZN22ZCom_Replicate_NumericIjLi11EE8packDataEP14ZCom_BitStream @2576
    _ZN22ZCom_Replicate_NumericIjLi11EE8peekDataEv @2577
    _ZN22ZCom_Replicate_NumericIjLi11EE8setValueEPj @2578
    _ZN22ZCom_Replicate_NumericIjLi11EE8setValueEhj @2579
    _ZN22ZCom_Replicate_NumericIjLi11EEC1EPjP18ZCom_RSetupNumeric @2580
    _ZN22ZCom_Replicate_NumericIjLi11EEC1EPjhhhhss @2581
    _ZN22ZCom_Replicate_NumericIjLi11EEC2EPjP18ZCom_RSetupNumeric @2582
    _ZN22ZCom_Replicate_NumericIjLi11EEC2EPjhhhhss @2583
    _ZN22ZCom_Replicate_NumericIjLi11EED0Ev @2584
    _ZN22ZCom_Replicate_NumericIjLi11EED1Ev @2585
    _ZN22ZCom_Replicate_NumericIjLi11EED2Ev @2586
    _ZN22ZCom_Replicate_NumericIjLi12EE10checkStateEv @2587
    _ZN22ZCom_Replicate_NumericIjLi12EE10unpackDataEP14ZCom_BitStreambj @2588
    _ZN22ZCom_Replicate_NumericIjLi12EE13clearPeekDataEv @2589
    _ZN22ZCom_Replicate_NumericIjLi12EE7ProcessE14eZCom_NodeRolej @2590
    _ZN22ZCom_Replicate_NumericIjLi12EE8getValueEh @2591
    _ZN22ZCom_Replicate_NumericIjLi12EE8getValueEv @2592
    _ZN22ZCom_Replicate_NumericIjLi12EE8packDataEP14ZCom_BitStream @2593
    _ZN22ZCom_Replicate_NumericIjLi12EE8peekDataEv @2594
    _ZN22ZCom_Replicate_NumericIjLi12EE8setValueEPj @2595
    _ZN22ZCom_Replicate_NumericIjLi12EE8setValueEhj @2596
    _ZN22ZCom_Replicate_NumericIjLi12EEC1EPjP18ZCom_RSetupNumeric @2597
    _ZN22ZCom_Replicate_NumericIjLi12EEC1EPjhhhhss @2598
    _ZN22ZCom_Replicate_NumericIjLi12EEC2EPjP18ZCom_RSetupNumeric @2599
    _ZN22ZCom_Replicate_NumericIjLi12EEC2EPjhhhhss @2600
    _ZN22ZCom_Replicate_NumericIjLi12EED0Ev @2601
    _ZN22ZCom_Replicate_NumericIjLi12EED1Ev @2602
    _ZN22ZCom_Replicate_NumericIjLi12EED2Ev @2603
    _ZN22ZCom_Replicate_NumericIjLi1EE10checkStateEv @2604
    _ZN22ZCom_Replicate_NumericIjLi1EE10unpackDataEP14ZCom_BitStreambj @2605
    _ZN22ZCom_Replicate_NumericIjLi1EE13clearPeekDataEv @2606
    _ZN22ZCom_Replicate_NumericIjLi1EE7ProcessE14eZCom_NodeRolej @2607
    _ZN22ZCom_Replicate_NumericIjLi1EE8getValueEh @2608
    _ZN22ZCom_Replicate_NumericIjLi1EE8getValueEv @2609
    _ZN22ZCom_Replicate_NumericIjLi1EE8packDataEP14ZCom_BitStream @2610
    _ZN22ZCom_Replicate_NumericIjLi1EE8peekDataEv @2611
    _ZN22ZCom_Replicate_NumericIjLi1EE8setValueEPj @2612
    _ZN22ZCom_Replicate_NumericIjLi1EE8setValueEhj @2613
    _ZN22ZCom_Replicate_NumericIjLi1EEC1EPjP18ZCom_RSetupNumeric @2614
    _ZN22ZCom_Replicate_NumericIjLi1EEC1EPjhhhhss @2615
    _ZN22ZCom_Replicate_NumericIjLi1EEC2EPjP18ZCom_RSetupNumeric @2616
    _ZN22ZCom_Replicate_NumericIjLi1EEC2EPjhhhhss @2617
    _ZN22ZCom_Replicate_NumericIjLi1EED0Ev @2618
    _ZN22ZCom_Replicate_NumericIjLi1EED1Ev @2619
    _ZN22ZCom_Replicate_NumericIjLi1EED2Ev @2620
    _ZN22ZCom_Replicate_NumericIjLi2EE10checkStateEv @2621
    _ZN22ZCom_Replicate_NumericIjLi2EE10unpackDataEP14ZCom_BitStreambj @2622
    _ZN22ZCom_Replicate_NumericIjLi2EE13clearPeekDataEv @2623
    _ZN22ZCom_Replicate_NumericIjLi2EE7ProcessE14eZCom_NodeRolej @2624
    _ZN22ZCom_Replicate_NumericIjLi2EE8getValueEh @2625
    _ZN22ZCom_Replicate_NumericIjLi2EE8getValueEv @2626
    _ZN22ZCom_Replicate_NumericIjLi2EE8packDataEP14ZCom_BitStream @2627
    _ZN22ZCom_Replicate_NumericIjLi2EE8peekDataEv @2628
    _ZN22ZCom_Replicate_NumericIjLi2EE8setValueEPj @2629
    _ZN22ZCom_Replicate_NumericIjLi2EE8setValueEhj @2630
    _ZN22ZCom_Replicate_NumericIjLi2EEC1EPjP18ZCom_RSetupNumeric @2631
    _ZN22ZCom_Replicate_NumericIjLi2EEC1EPjhhhhss @2632
    _ZN22ZCom_Replicate_NumericIjLi2EEC2EPjP18ZCom_RSetupNumeric @2633
    _ZN22ZCom_Replicate_NumericIjLi2EEC2EPjhhhhss @2634
    _ZN22ZCom_Replicate_NumericIjLi2EED0Ev @2635
    _ZN22ZCom_Replicate_NumericIjLi2EED1Ev @2636
    _ZN22ZCom_Replicate_NumericIjLi2EED2Ev @2637
    _ZN22ZCom_Replicate_NumericIjLi3EE10checkStateEv @2638
    _ZN22ZCom_Replicate_NumericIjLi3EE10unpackDataEP14ZCom_BitStreambj @2639
    _ZN22ZCom_Replicate_NumericIjLi3EE13clearPeekDataEv @2640
    _ZN22ZCom_Replicate_NumericIjLi3EE7ProcessE14eZCom_NodeRolej @2641
    _ZN22ZCom_Replicate_NumericIjLi3EE8getValueEh @2642
    _ZN22ZCom_Replicate_NumericIjLi3EE8getValueEv @2643
    _ZN22ZCom_Replicate_NumericIjLi3EE8packDataEP14ZCom_BitStream @2644
    _ZN22ZCom_Replicate_NumericIjLi3EE8peekDataEv @2645
    _ZN22ZCom_Replicate_NumericIjLi3EE8setValueEPj @2646
    _ZN22ZCom_Replicate_NumericIjLi3EE8setValueEhj @2647
    _ZN22ZCom_Replicate_NumericIjLi3EEC1EPjP18ZCom_RSetupNumeric @2648
    _ZN22ZCom_Replicate_NumericIjLi3EEC1EPjhhhhss @2649
    _ZN22ZCom_Replicate_NumericIjLi3EEC2EPjP18ZCom_RSetupNumeric @2650
    _ZN22ZCom_Replicate_NumericIjLi3EEC2EPjhhhhss @2651
    _ZN22ZCom_Replicate_NumericIjLi3EED0Ev @2652
    _ZN22ZCom_Replicate_NumericIjLi3EED1Ev @2653
    _ZN22ZCom_Replicate_NumericIjLi3EED2Ev @2654
    _ZN22ZCom_Replicate_NumericIjLi4EE10checkStateEv @2655
    _ZN22ZCom_Replicate_NumericIjLi4EE10unpackDataEP14ZCom_BitStreambj @2656
    _ZN22ZCom_Replicate_NumericIjLi4EE13clearPeekDataEv @2657
    _ZN22ZCom_Replicate_NumericIjLi4EE7ProcessE14eZCom_NodeRolej @2658
    _ZN22ZCom_Replicate_NumericIjLi4EE8getValueEh @2659
    _ZN22ZCom_Replicate_NumericIjLi4EE8getValueEv @2660
    _ZN22ZCom_Replicate_NumericIjLi4EE8packDataEP14ZCom_BitStream @2661
    _ZN22ZCom_Replicate_NumericIjLi4EE8peekDataEv @2662
    _ZN22ZCom_Replicate_NumericIjLi4EE8setValueEPj @2663
    _ZN22ZCom_Replicate_NumericIjLi4EE8setValueEhj @2664
    _ZN22ZCom_Replicate_NumericIjLi4EEC1EPjP18ZCom_RSetupNumeric @2665
    _ZN22ZCom_Replicate_NumericIjLi4EEC1EPjhhhhss @2666
    _ZN22ZCom_Replicate_NumericIjLi4EEC2EPjP18ZCom_RSetupNumeric @2667
    _ZN22ZCom_Replicate_NumericIjLi4EEC2EPjhhhhss @2668
    _ZN22ZCom_Replicate_NumericIjLi4EED0Ev @2669
    _ZN22ZCom_Replicate_NumericIjLi4EED1Ev @2670
    _ZN22ZCom_Replicate_NumericIjLi4EED2Ev @2671
    _ZN22ZCom_Replicate_NumericIjLi5EE10checkStateEv @2672
    _ZN22ZCom_Replicate_NumericIjLi5EE10unpackDataEP14ZCom_BitStreambj @2673
    _ZN22ZCom_Replicate_NumericIjLi5EE13clearPeekDataEv @2674
    _ZN22ZCom_Replicate_NumericIjLi5EE7ProcessE14eZCom_NodeRolej @2675
    _ZN22ZCom_Replicate_NumericIjLi5EE8getValueEh @2676
    _ZN22ZCom_Replicate_NumericIjLi5EE8getValueEv @2677
    _ZN22ZCom_Replicate_NumericIjLi5EE8packDataEP14ZCom_BitStream @2678
    _ZN22ZCom_Replicate_NumericIjLi5EE8peekDataEv @2679
    _ZN22ZCom_Replicate_NumericIjLi5EE8setValueEPj @2680
    _ZN22ZCom_Replicate_NumericIjLi5EE8setValueEhj @2681
    _ZN22ZCom_Replicate_NumericIjLi5EEC1EPjP18ZCom_RSetupNumeric @2682
    _ZN22ZCom_Replicate_NumericIjLi5EEC1EPjhhhhss @2683
    _ZN22ZCom_Replicate_NumericIjLi5EEC2EPjP18ZCom_RSetupNumeric @2684
    _ZN22ZCom_Replicate_NumericIjLi5EEC2EPjhhhhss @2685
    _ZN22ZCom_Replicate_NumericIjLi5EED0Ev @2686
    _ZN22ZCom_Replicate_NumericIjLi5EED1Ev @2687
    _ZN22ZCom_Replicate_NumericIjLi5EED2Ev @2688
    _ZN22ZCom_Replicate_NumericIjLi6EE10checkStateEv @2689
    _ZN22ZCom_Replicate_NumericIjLi6EE10unpackDataEP14ZCom_BitStreambj @2690
    _ZN22ZCom_Replicate_NumericIjLi6EE13clearPeekDataEv @2691
    _ZN22ZCom_Replicate_NumericIjLi6EE7ProcessE14eZCom_NodeRolej @2692
    _ZN22ZCom_Replicate_NumericIjLi6EE8getValueEh @2693
    _ZN22ZCom_Replicate_NumericIjLi6EE8getValueEv @2694
    _ZN22ZCom_Replicate_NumericIjLi6EE8packDataEP14ZCom_BitStream @2695
    _ZN22ZCom_Replicate_NumericIjLi6EE8peekDataEv @2696
    _ZN22ZCom_Replicate_NumericIjLi6EE8setValueEPj @2697
    _ZN22ZCom_Replicate_NumericIjLi6EE8setValueEhj @2698
    _ZN22ZCom_Replicate_NumericIjLi6EEC1EPjP18ZCom_RSetupNumeric @2699
    _ZN22ZCom_Replicate_NumericIjLi6EEC1EPjhhhhss @2700
    _ZN22ZCom_Replicate_NumericIjLi6EEC2EPjP18ZCom_RSetupNumeric @2701
    _ZN22ZCom_Replicate_NumericIjLi6EEC2EPjhhhhss @2702
    _ZN22ZCom_Replicate_NumericIjLi6EED0Ev @2703
    _ZN22ZCom_Replicate_NumericIjLi6EED1Ev @2704
    _ZN22ZCom_Replicate_NumericIjLi6EED2Ev @2705
    _ZN22ZCom_Replicate_NumericIjLi7EE10checkStateEv @2706
    _ZN22ZCom_Replicate_NumericIjLi7EE10unpackDataEP14ZCom_BitStreambj @2707
    _ZN22ZCom_Replicate_NumericIjLi7EE13clearPeekDataEv @2708
    _ZN22ZCom_Replicate_NumericIjLi7EE7ProcessE14eZCom_NodeRolej @2709
    _ZN22ZCom_Replicate_NumericIjLi7EE8getValueEh @2710
    _ZN22ZCom_Replicate_NumericIjLi7EE8getValueEv @2711
    _ZN22ZCom_Replicate_NumericIjLi7EE8packDataEP14ZCom_BitStream @2712
    _ZN22ZCom_Replicate_NumericIjLi7EE8peekDataEv @2713
    _ZN22ZCom_Replicate_NumericIjLi7EE8setValueEPj @2714
    _ZN22ZCom_Replicate_NumericIjLi7EE8setValueEhj @2715
    _ZN22ZCom_Replicate_NumericIjLi7EEC1EPjP18ZCom_RSetupNumeric @2716
    _ZN22ZCom_Replicate_NumericIjLi7EEC1EPjhhhhss @2717
    _ZN22ZCom_Replicate_NumericIjLi7EEC2EPjP18ZCom_RSetupNumeric @2718
    _ZN22ZCom_Replicate_NumericIjLi7EEC2EPjhhhhss @2719
    _ZN22ZCom_Replicate_NumericIjLi7EED0Ev @2720
    _ZN22ZCom_Replicate_NumericIjLi7EED1Ev @2721
    _ZN22ZCom_Replicate_NumericIjLi7EED2Ev @2722
    _ZN22ZCom_Replicate_NumericIjLi8EE10checkStateEv @2723
    _ZN22ZCom_Replicate_NumericIjLi8EE10unpackDataEP14ZCom_BitStreambj @2724
    _ZN22ZCom_Replicate_NumericIjLi8EE13clearPeekDataEv @2725
    _ZN22ZCom_Replicate_NumericIjLi8EE7ProcessE14eZCom_NodeRolej @2726
    _ZN22ZCom_Replicate_NumericIjLi8EE8getValueEh @2727
    _ZN22ZCom_Replicate_NumericIjLi8EE8getValueEv @2728
    _ZN22ZCom_Replicate_NumericIjLi8EE8packDataEP14ZCom_BitStream @2729
    _ZN22ZCom_Replicate_NumericIjLi8EE8peekDataEv @2730
    _ZN22ZCom_Replicate_NumericIjLi8EE8setValueEPj @2731
    _ZN22ZCom_Replicate_NumericIjLi8EE8setValueEhj @2732
    _ZN22ZCom_Replicate_NumericIjLi8EEC1EPjP18ZCom_RSetupNumeric @2733
    _ZN22ZCom_Replicate_NumericIjLi8EEC1EPjhhhhss @2734
    _ZN22ZCom_Replicate_NumericIjLi8EEC2EPjP18ZCom_RSetupNumeric @2735
    _ZN22ZCom_Replicate_NumericIjLi8EEC2EPjhhhhss @2736
    _ZN22ZCom_Replicate_NumericIjLi8EED0Ev @2737
    _ZN22ZCom_Replicate_NumericIjLi8EED1Ev @2738
    _ZN22ZCom_Replicate_NumericIjLi8EED2Ev @2739
    _ZN22ZCom_Replicate_NumericIjLi9EE10checkStateEv @2740
    _ZN22ZCom_Replicate_NumericIjLi9EE10unpackDataEP14ZCom_BitStreambj @2741
    _ZN22ZCom_Replicate_NumericIjLi9EE13clearPeekDataEv @2742
    _ZN22ZCom_Replicate_NumericIjLi9EE7ProcessE14eZCom_NodeRolej @2743
    _ZN22ZCom_Replicate_NumericIjLi9EE8getValueEh @2744
    _ZN22ZCom_Replicate_NumericIjLi9EE8getValueEv @2745
    _ZN22ZCom_Replicate_NumericIjLi9EE8packDataEP14ZCom_BitStream @2746
    _ZN22ZCom_Replicate_NumericIjLi9EE8peekDataEv @2747
    _ZN22ZCom_Replicate_NumericIjLi9EE8setValueEPj @2748
    _ZN22ZCom_Replicate_NumericIjLi9EE8setValueEhj @2749
    _ZN22ZCom_Replicate_NumericIjLi9EEC1EPjP18ZCom_RSetupNumeric @2750
    _ZN22ZCom_Replicate_NumericIjLi9EEC1EPjhhhhss @2751
    _ZN22ZCom_Replicate_NumericIjLi9EEC2EPjP18ZCom_RSetupNumeric @2752
    _ZN22ZCom_Replicate_NumericIjLi9EEC2EPjhhhhss @2753
    _ZN22ZCom_Replicate_NumericIjLi9EED0Ev @2754
    _ZN22ZCom_Replicate_NumericIjLi9EED1Ev @2755
    _ZN22ZCom_Replicate_NumericIjLi9EED2Ev @2756
    _ZN22ZCom_Replicate_Stringp10checkStateEv @2757
    _ZN22ZCom_Replicate_Stringp10unpackDataEP14ZCom_BitStreambj @2758
    _ZN22ZCom_Replicate_Stringp13clearPeekDataEv @2759
    _ZN22ZCom_Replicate_Stringp7ProcessE14eZCom_NodeRolej @2760
    _ZN22ZCom_Replicate_Stringp8packDataEP14ZCom_BitStream @2761
    _ZN22ZCom_Replicate_Stringp8peekDataEv @2762
    _ZN22ZCom_Replicate_StringpC1EPcP17ZCom_RSetupString @2763
    _ZN22ZCom_Replicate_StringpC1EPcthhhss @2764
    _ZN22ZCom_Replicate_StringpC2EPcP17ZCom_RSetupString @2765
    _ZN22ZCom_Replicate_StringpC2EPcthhhss @2766
    _ZN22ZCom_Replicate_StringpD0Ev @2767
    _ZN22ZCom_Replicate_StringpD1Ev @2768
    _ZN22ZCom_Replicate_StringpD2Ev @2769
    _ZN23ZCom_Replicate_MovementIfLi1EE10onDataLostEjjP14ZCom_BitStream @2770
    _ZN23ZCom_Replicate_MovementIfLi1EE11onDataAckedEjjP14ZCom_BitStream @2771
    _ZN23ZCom_Replicate_MovementIfLi1EE11updateInputEPfP14ZCom_BitStream @2772
    _ZN23ZCom_Replicate_MovementIfLi1EE11updateStateEPfS1_S1_b @2773
    _ZN23ZCom_Replicate_MovementIfLi1EE12setTimeScaleEf @2774
    _ZN23ZCom_Replicate_MovementIfLi1EE13clearPeekDataEv @2775
    _ZN23ZCom_Replicate_MovementIfLi1EE13onPreSendDataEj14eZCom_NodeRolePj @2776
    _ZN23ZCom_Replicate_MovementIfLi1EE13overrideStateEPfS1_S1_i @2777
    _ZN23ZCom_Replicate_MovementIfLi1EE14getSplinePointEfPf @2778
    _ZN23ZCom_Replicate_MovementIfLi1EE14onDataReceivedEj14eZCom_NodeRoleR14ZCom_BitStreambj @2779
    _ZN23ZCom_Replicate_MovementIfLi1EE15getAccelerationEPf @2780
    _ZN23ZCom_Replicate_MovementIfLi1EE16onPacketReceivedEj @2781
    _ZN23ZCom_Replicate_MovementIfLi1EE17onConnectionAddedEj14eZCom_NodeRole @2782
    _ZN23ZCom_Replicate_MovementIfLi1EE17setUpdateListenerEP23ZCom_MoveUpdateListenerIfE @2783
    _ZN23ZCom_Replicate_MovementIfLi1EE18onLocalRoleChangedE14eZCom_NodeRoleS1_ @2784
    _ZN23ZCom_Replicate_MovementIfLi1EE19onConnectionRemovedEj14eZCom_NodeRole @2785
    _ZN23ZCom_Replicate_MovementIfLi1EE19onRemoteRoleChangedEj14eZCom_NodeRoleS1_ @2786
    _ZN23ZCom_Replicate_MovementIfLi1EE21getSplineControlPointEjPf @2787
    _ZN23ZCom_Replicate_MovementIfLi1EE23getExtrapolatedPositionEiPf @2788
    _ZN23ZCom_Replicate_MovementIfLi1EE23getExtrapolatedVelocityEiPf @2789
    _ZN23ZCom_Replicate_MovementIfLi1EE23getLastReceivedPositionEPf @2790
    _ZN23ZCom_Replicate_MovementIfLi1EE23getLastReceivedVelocityEPf @2791
    _ZN23ZCom_Replicate_MovementIfLi1EE24getNextInputHistoryEntryEPjPPv @2792
    _ZN23ZCom_Replicate_MovementIfLi1EE7ProcessE14eZCom_NodeRolej @2793
    _ZN23ZCom_Replicate_MovementIfLi1EE8peekDataEv @2794
    _ZN23ZCom_Replicate_MovementIfLi1EEC1EP19ZCom_RSetupMovementIfE @2795
    _ZN23ZCom_Replicate_MovementIfLi1EEC1Ehhhhss @2796
    _ZN23ZCom_Replicate_MovementIfLi1EEC2EP19ZCom_RSetupMovementIfE @2797
    _ZN23ZCom_Replicate_MovementIfLi1EEC2Ehhhhss @2798
    _ZN23ZCom_Replicate_MovementIfLi1EED0Ev @2799
    _ZN23ZCom_Replicate_MovementIfLi1EED1Ev @2800
    _ZN23ZCom_Replicate_MovementIfLi1EED2Ev @2801
    _ZN23ZCom_Replicate_MovementIfLi2EE10onDataLostEjjP14ZCom_BitStream @2802
    _ZN23ZCom_Replicate_MovementIfLi2EE11onDataAckedEjjP14ZCom_BitStream @2803
    _ZN23ZCom_Replicate_MovementIfLi2EE11updateInputEPfP14ZCom_BitStream @2804
    _ZN23ZCom_Replicate_MovementIfLi2EE11updateStateEPfS1_S1_b @2805
    _ZN23ZCom_Replicate_MovementIfLi2EE12setTimeScaleEf @2806
    _ZN23ZCom_Replicate_MovementIfLi2EE13clearPeekDataEv @2807
    _ZN23ZCom_Replicate_MovementIfLi2EE13onPreSendDataEj14eZCom_NodeRolePj @2808
    _ZN23ZCom_Replicate_MovementIfLi2EE13overrideStateEPfS1_S1_i @2809
    _ZN23ZCom_Replicate_MovementIfLi2EE14getSplinePointEfPf @2810
    _ZN23ZCom_Replicate_MovementIfLi2EE14onDataReceivedEj14eZCom_NodeRoleR14ZCom_BitStreambj @2811
    _ZN23ZCom_Replicate_MovementIfLi2EE15getAccelerationEPf @2812
    _ZN23ZCom_Replicate_MovementIfLi2EE16onPacketReceivedEj @2813
    _ZN23ZCom_Replicate_MovementIfLi2EE17onConnectionAddedEj14eZCom_NodeRole @2814
    _ZN23ZCom_Replicate_MovementIfLi2EE17setUpdateListenerEP23ZCom_MoveUpdateListenerIfE @2815
    _ZN23ZCom_Replicate_MovementIfLi2EE18onLocalRoleChangedE14eZCom_NodeRoleS1_ @2816
    _ZN23ZCom_Replicate_MovementIfLi2EE19onConnectionRemovedEj14eZCom_NodeRole @2817
    _ZN23ZCom_Replicate_MovementIfLi2EE19onRemoteRoleChangedEj14eZCom_NodeRoleS1_ @2818
    _ZN23ZCom_Replicate_MovementIfLi2EE21getSplineControlPointEjPf @2819
    _ZN23ZCom_Replicate_MovementIfLi2EE23getExtrapolatedPositionEiPf @2820
    _ZN23ZCom_Replicate_MovementIfLi2EE23getExtrapolatedVelocityEiPf @2821
    _ZN23ZCom_Replicate_MovementIfLi2EE23getLastReceivedPositionEPf @2822
    _ZN23ZCom_Replicate_MovementIfLi2EE23getLastReceivedVelocityEPf @2823
    _ZN23ZCom_Replicate_MovementIfLi2EE24getNextInputHistoryEntryEPjPPv @2824
    _ZN23ZCom_Replicate_MovementIfLi2EE7ProcessE14eZCom_NodeRolej @2825
    _ZN23ZCom_Replicate_MovementIfLi2EE8peekDataEv @2826
    _ZN23ZCom_Replicate_MovementIfLi2EEC1EP19ZCom_RSetupMovementIfE @2827
    _ZN23ZCom_Replicate_MovementIfLi2EEC1Ehhhhss @2828
    _ZN23ZCom_Replicate_MovementIfLi2EEC2EP19ZCom_RSetupMovementIfE @2829
    _ZN23ZCom_Replicate_MovementIfLi2EEC2Ehhhhss @2830
    _ZN23ZCom_Replicate_MovementIfLi2EED0Ev @2831
    _ZN23ZCom_Replicate_MovementIfLi2EED1Ev @2832
    _ZN23ZCom_Replicate_MovementIfLi2EED2Ev @2833
    _ZN23ZCom_Replicate_MovementIfLi3EE10onDataLostEjjP14ZCom_BitStream @2834
    _ZN23ZCom_Replicate_MovementIfLi3EE11onDataAckedEjjP14ZCom_BitStream @2835
    _ZN23ZCom_Replicate_MovementIfLi3EE11updateInputEPfP14ZCom_BitStream @2836
    _ZN23ZCom_Replicate_MovementIfLi3EE11updateStateEPfS1_S1_b @2837
    _ZN23ZCom_Replicate_MovementIfLi3EE12setTimeScaleEf @2838
    _ZN23ZCom_Replicate_MovementIfLi3EE13clearPeekDataEv @2839
    _ZN23ZCom_Replicate_MovementIfLi3EE13onPreSendDataEj14eZCom_NodeRolePj @2840
    _ZN23ZCom_Replicate_MovementIfLi3EE13overrideStateEPfS1_S1_i @2841
    _ZN23ZCom_Replicate_MovementIfLi3EE14getSplinePointEfPf @2842
    _ZN23ZCom_Replicate_MovementIfLi3EE14onDataReceivedEj14eZCom_NodeRoleR14ZCom_BitStreambj @2843
    _ZN23ZCom_Replicate_MovementIfLi3EE15getAccelerationEPf @2844
    _ZN23ZCom_Replicate_MovementIfLi3EE16onPacketReceivedEj @2845
    _ZN23ZCom_Replicate_MovementIfLi3EE17onConnectionAddedEj14eZCom_NodeRole @2846
    _ZN23ZCom_Replicate_MovementIfLi3EE17setUpdateListenerEP23ZCom_MoveUpdateListenerIfE @2847
    _ZN23ZCom_Replicate_MovementIfLi3EE18onLocalRoleChangedE14eZCom_NodeRoleS1_ @2848
    _ZN23ZCom_Replicate_MovementIfLi3EE19onConnectionRemovedEj14eZCom_NodeRole @2849
    _ZN23ZCom_Replicate_MovementIfLi3EE19onRemoteRoleChangedEj14eZCom_NodeRoleS1_ @2850
    _ZN23ZCom_Replicate_MovementIfLi3EE21getSplineControlPointEjPf @2851
    _ZN23ZCom_Replicate_MovementIfLi3EE23getExtrapolatedPositionEiPf @2852
    _ZN23ZCom_Replicate_MovementIfLi3EE23getExtrapolatedVelocityEiPf @2853
    _ZN23ZCom_Replicate_MovementIfLi3EE23getLastReceivedPositionEPf @2854
    _ZN23ZCom_Replicate_MovementIfLi3EE23getLastReceivedVelocityEPf @2855
    _ZN23ZCom_Replicate_MovementIfLi3EE24getNextInputHistoryEntryEPjPPv @2856
    _ZN23ZCom_Replicate_MovementIfLi3EE7ProcessE14eZCom_NodeRolej @2857
    _ZN23ZCom_Replicate_MovementIfLi3EE8peekDataEv @2858
    _ZN23ZCom_Replicate_MovementIfLi3EEC1EP19ZCom_RSetupMovementIfE @2859
    _ZN23ZCom_Replicate_MovementIfLi3EEC1Ehhhhss @2860
    _ZN23ZCom_Replicate_MovementIfLi3EEC2EP19ZCom_RSetupMovementIfE @2861
    _ZN23ZCom_Replicate_MovementIfLi3EEC2Ehhhhss @2862
    _ZN23ZCom_Replicate_MovementIfLi3EED0Ev @2863
    _ZN23ZCom_Replicate_MovementIfLi3EED1Ev @2864
    _ZN23ZCom_Replicate_MovementIfLi3EED2Ev @2865
    _ZN23ZCom_Replicate_MovementIiLi1EE10onDataLostEjjP14ZCom_BitStream @2866
    _ZN23ZCom_Replicate_MovementIiLi1EE11onDataAckedEjjP14ZCom_BitStream @2867
    _ZN23ZCom_Replicate_MovementIiLi1EE11updateInputEPiP14ZCom_BitStream @2868
    _ZN23ZCom_Replicate_MovementIiLi1EE11updateStateEPiPfS2_b @2869
    _ZN23ZCom_Replicate_MovementIiLi1EE12setTimeScaleEf @2870
    _ZN23ZCom_Replicate_MovementIiLi1EE13clearPeekDataEv @2871
    _ZN23ZCom_Replicate_MovementIiLi1EE13onPreSendDataEj14eZCom_NodeRolePj @2872
    _ZN23ZCom_Replicate_MovementIiLi1EE13overrideStateEPiPfS2_i @2873
    _ZN23ZCom_Replicate_MovementIiLi1EE14getSplinePointEfPi @2874
    _ZN23ZCom_Replicate_MovementIiLi1EE14onDataReceivedEj14eZCom_NodeRoleR14ZCom_BitStreambj @2875
    _ZN23ZCom_Replicate_MovementIiLi1EE15getAccelerationEPf @2876
    _ZN23ZCom_Replicate_MovementIiLi1EE16onPacketReceivedEj @2877
    _ZN23ZCom_Replicate_MovementIiLi1EE17onConnectionAddedEj14eZCom_NodeRole @2878
    _ZN23ZCom_Replicate_MovementIiLi1EE17setUpdateListenerEP23ZCom_MoveUpdateListenerIiE @2879
    _ZN23ZCom_Replicate_MovementIiLi1EE18onLocalRoleChangedE14eZCom_NodeRoleS1_ @2880
    _ZN23ZCom_Replicate_MovementIiLi1EE19onConnectionRemovedEj14eZCom_NodeRole @2881
    _ZN23ZCom_Replicate_MovementIiLi1EE19onRemoteRoleChangedEj14eZCom_NodeRoleS1_ @2882
    _ZN23ZCom_Replicate_MovementIiLi1EE21getSplineControlPointEjPi @2883
    _ZN23ZCom_Replicate_MovementIiLi1EE23getExtrapolatedPositionEiPi @2884
    _ZN23ZCom_Replicate_MovementIiLi1EE23getExtrapolatedVelocityEiPf @2885
    _ZN23ZCom_Replicate_MovementIiLi1EE23getLastReceivedPositionEPi @2886
    _ZN23ZCom_Replicate_MovementIiLi1EE23getLastReceivedVelocityEPf @2887
    _ZN23ZCom_Replicate_MovementIiLi1EE24getNextInputHistoryEntryEPjPPv @2888
    _ZN23ZCom_Replicate_MovementIiLi1EE7ProcessE14eZCom_NodeRolej @2889
    _ZN23ZCom_Replicate_MovementIiLi1EE8peekDataEv @2890
    _ZN23ZCom_Replicate_MovementIiLi1EEC1EP19ZCom_RSetupMovementIiE @2891
    _ZN23ZCom_Replicate_MovementIiLi1EEC1Ehhhhss @2892
    _ZN23ZCom_Replicate_MovementIiLi1EEC2EP19ZCom_RSetupMovementIiE @2893
    _ZN23ZCom_Replicate_MovementIiLi1EEC2Ehhhhss @2894
    _ZN23ZCom_Replicate_MovementIiLi1EED0Ev @2895
    _ZN23ZCom_Replicate_MovementIiLi1EED1Ev @2896
    _ZN23ZCom_Replicate_MovementIiLi1EED2Ev @2897
    _ZN23ZCom_Replicate_MovementIiLi2EE10onDataLostEjjP14ZCom_BitStream @2898
    _ZN23ZCom_Replicate_MovementIiLi2EE11onDataAckedEjjP14ZCom_BitStream @2899
    _ZN23ZCom_Replicate_MovementIiLi2EE11updateInputEPiP14ZCom_BitStream @2900
    _ZN23ZCom_Replicate_MovementIiLi2EE11updateStateEPiPfS2_b @2901
    _ZN23ZCom_Replicate_MovementIiLi2EE12setTimeScaleEf @2902
    _ZN23ZCom_Replicate_MovementIiLi2EE13clearPeekDataEv @2903
    _ZN23ZCom_Replicate_MovementIiLi2EE13onPreSendDataEj14eZCom_NodeRolePj @2904
    _ZN23ZCom_Replicate_MovementIiLi2EE13overrideStateEPiPfS2_i @2905
    _ZN23ZCom_Replicate_MovementIiLi2EE14getSplinePointEfPi @2906
    _ZN23ZCom_Replicate_MovementIiLi2EE14onDataReceivedEj14eZCom_NodeRoleR14ZCom_BitStreambj @2907
    _ZN23ZCom_Replicate_MovementIiLi2EE15getAccelerationEPf @2908
    _ZN23ZCom_Replicate_MovementIiLi2EE16onPacketReceivedEj @2909
    _ZN23ZCom_Replicate_MovementIiLi2EE17onConnectionAddedEj14eZCom_NodeRole @2910
    _ZN23ZCom_Replicate_MovementIiLi2EE17setUpdateListenerEP23ZCom_MoveUpdateListenerIiE @2911
    _ZN23ZCom_Replicate_MovementIiLi2EE18onLocalRoleChangedE14eZCom_NodeRoleS1_ @2912
    _ZN23ZCom_Replicate_MovementIiLi2EE19onConnectionRemovedEj14eZCom_NodeRole @2913
    _ZN23ZCom_Replicate_MovementIiLi2EE19onRemoteRoleChangedEj14eZCom_NodeRoleS1_ @2914
    _ZN23ZCom_Replicate_MovementIiLi2EE21getSplineControlPointEjPi @2915
    _ZN23ZCom_Replicate_MovementIiLi2EE23getExtrapolatedPositionEiPi @2916
    _ZN23ZCom_Replicate_MovementIiLi2EE23getExtrapolatedVelocityEiPf @2917
    _ZN23ZCom_Replicate_MovementIiLi2EE23getLastReceivedPositionEPi @2918
    _ZN23ZCom_Replicate_MovementIiLi2EE23getLastReceivedVelocityEPf @2919
    _ZN23ZCom_Replicate_MovementIiLi2EE24getNextInputHistoryEntryEPjPPv @2920
    _ZN23ZCom_Replicate_MovementIiLi2EE7ProcessE14eZCom_NodeRolej @2921
    _ZN23ZCom_Replicate_MovementIiLi2EE8peekDataEv @2922
    _ZN23ZCom_Replicate_MovementIiLi2EEC1EP19ZCom_RSetupMovementIiE @2923
    _ZN23ZCom_Replicate_MovementIiLi2EEC1Ehhhhss @2924
    _ZN23ZCom_Replicate_MovementIiLi2EEC2EP19ZCom_RSetupMovementIiE @2925
    _ZN23ZCom_Replicate_MovementIiLi2EEC2Ehhhhss @2926
    _ZN23ZCom_Replicate_MovementIiLi2EED0Ev @2927
    _ZN23ZCom_Replicate_MovementIiLi2EED1Ev @2928
    _ZN23ZCom_Replicate_MovementIiLi2EED2Ev @2929
    _ZN23ZCom_Replicate_MovementIiLi3EE10onDataLostEjjP14ZCom_BitStream @2930
    _ZN23ZCom_Replicate_MovementIiLi3EE11onDataAckedEjjP14ZCom_BitStream @2931
    _ZN23ZCom_Replicate_MovementIiLi3EE11updateInputEPiP14ZCom_BitStream @2932
    _ZN23ZCom_Replicate_MovementIiLi3EE11updateStateEPiPfS2_b @2933
    _ZN23ZCom_Replicate_MovementIiLi3EE12setTimeScaleEf @2934
    _ZN23ZCom_Replicate_MovementIiLi3EE13clearPeekDataEv @2935
    _ZN23ZCom_Replicate_MovementIiLi3EE13onPreSendDataEj14eZCom_NodeRolePj @2936
    _ZN23ZCom_Replicate_MovementIiLi3EE13overrideStateEPiPfS2_i @2937
    _ZN23ZCom_Replicate_MovementIiLi3EE14getSplinePointEfPi @2938
    _ZN23ZCom_Replicate_MovementIiLi3EE14onDataReceivedEj14eZCom_NodeRoleR14ZCom_BitStreambj @2939
    _ZN23ZCom_Replicate_MovementIiLi3EE15getAccelerationEPf @2940
    _ZN23ZCom_Replicate_MovementIiLi3EE16onPacketReceivedEj @2941
    _ZN23ZCom_Replicate_MovementIiLi3EE17onConnectionAddedEj14eZCom_NodeRole @2942
    _ZN23ZCom_Replicate_MovementIiLi3EE17setUpdateListenerEP23ZCom_MoveUpdateListenerIiE @2943
    _ZN23ZCom_Replicate_MovementIiLi3EE18onLocalRoleChangedE14eZCom_NodeRoleS1_ @2944
    _ZN23ZCom_Replicate_MovementIiLi3EE19onConnectionRemovedEj14eZCom_NodeRole @2945
    _ZN23ZCom_Replicate_MovementIiLi3EE19onRemoteRoleChangedEj14eZCom_NodeRoleS1_ @2946
    _ZN23ZCom_Replicate_MovementIiLi3EE21getSplineControlPointEjPi @2947
    _ZN23ZCom_Replicate_MovementIiLi3EE23getExtrapolatedPositionEiPi @2948
    _ZN23ZCom_Replicate_MovementIiLi3EE23getExtrapolatedVelocityEiPf @2949
    _ZN23ZCom_Replicate_MovementIiLi3EE23getLastReceivedPositionEPi @2950
    _ZN23ZCom_Replicate_MovementIiLi3EE23getLastReceivedVelocityEPf @2951
    _ZN23ZCom_Replicate_MovementIiLi3EE24getNextInputHistoryEntryEPjPPv @2952
    _ZN23ZCom_Replicate_MovementIiLi3EE7ProcessE14eZCom_NodeRolej @2953
    _ZN23ZCom_Replicate_MovementIiLi3EE8peekDataEv @2954
    _ZN23ZCom_Replicate_MovementIiLi3EEC1EP19ZCom_RSetupMovementIiE @2955
    _ZN23ZCom_Replicate_MovementIiLi3EEC1Ehhhhss @2956
    _ZN23ZCom_Replicate_MovementIiLi3EEC2EP19ZCom_RSetupMovementIiE @2957
    _ZN23ZCom_Replicate_MovementIiLi3EEC2Ehhhhss @2958
    _ZN23ZCom_Replicate_MovementIiLi3EED0Ev @2959
    _ZN23ZCom_Replicate_MovementIiLi3EED1Ev @2960
    _ZN23ZCom_Replicate_MovementIiLi3EED2Ev @2961
    _ZN23ZCom_Replicate_MovementIjLi1EE10onDataLostEjjP14ZCom_BitStream @2962
    _ZN23ZCom_Replicate_MovementIjLi1EE11onDataAckedEjjP14ZCom_BitStream @2963
    _ZN23ZCom_Replicate_MovementIjLi1EE11updateInputEPjP14ZCom_BitStream @2964
    _ZN23ZCom_Replicate_MovementIjLi1EE11updateStateEPjPfS2_b @2965
    _ZN23ZCom_Replicate_MovementIjLi1EE12setTimeScaleEf @2966
    _ZN23ZCom_Replicate_MovementIjLi1EE13clearPeekDataEv @2967
    _ZN23ZCom_Replicate_MovementIjLi1EE13onPreSendDataEj14eZCom_NodeRolePj @2968
    _ZN23ZCom_Replicate_MovementIjLi1EE13overrideStateEPjPfS2_i @2969
    _ZN23ZCom_Replicate_MovementIjLi1EE14getSplinePointEfPj @2970
    _ZN23ZCom_Replicate_MovementIjLi1EE14onDataReceivedEj14eZCom_NodeRoleR14ZCom_BitStreambj @2971
    _ZN23ZCom_Replicate_MovementIjLi1EE15getAccelerationEPf @2972
    _ZN23ZCom_Replicate_MovementIjLi1EE16onPacketReceivedEj @2973
    _ZN23ZCom_Replicate_MovementIjLi1EE17onConnectionAddedEj14eZCom_NodeRole @2974
    _ZN23ZCom_Replicate_MovementIjLi1EE17setUpdateListenerEP23ZCom_MoveUpdateListenerIjE @2975
    _ZN23ZCom_Replicate_MovementIjLi1EE18onLocalRoleChangedE14eZCom_NodeRoleS1_ @2976
    _ZN23ZCom_Replicate_MovementIjLi1EE19onConnectionRemovedEj14eZCom_NodeRole @2977
    _ZN23ZCom_Replicate_MovementIjLi1EE19onRemoteRoleChangedEj14eZCom_NodeRoleS1_ @2978
    _ZN23ZCom_Replicate_MovementIjLi1EE21getSplineControlPointEjPj @2979
    _ZN23ZCom_Replicate_MovementIjLi1EE23getExtrapolatedPositionEiPj @2980
    _ZN23ZCom_Replicate_MovementIjLi1EE23getExtrapolatedVelocityEiPf @2981
    _ZN23ZCom_Replicate_MovementIjLi1EE23getLastReceivedPositionEPj @2982
    _ZN23ZCom_Replicate_MovementIjLi1EE23getLastReceivedVelocityEPf @2983
    _ZN23ZCom_Replicate_MovementIjLi1EE24getNextInputHistoryEntryEPjPPv @2984
    _ZN23ZCom_Replicate_MovementIjLi1EE7ProcessE14eZCom_NodeRolej @2985
    _ZN23ZCom_Replicate_MovementIjLi1EE8peekDataEv @2986
    _ZN23ZCom_Replicate_MovementIjLi1EEC1EP19ZCom_RSetupMovementIjE @2987
    _ZN23ZCom_Replicate_MovementIjLi1EEC1Ehhhhss @2988
    _ZN23ZCom_Replicate_MovementIjLi1EEC2EP19ZCom_RSetupMovementIjE @2989
    _ZN23ZCom_Replicate_MovementIjLi1EEC2Ehhhhss @2990
    _ZN23ZCom_Replicate_MovementIjLi1EED0Ev @2991
    _ZN23ZCom_Replicate_MovementIjLi1EED1Ev @2992
    _ZN23ZCom_Replicate_MovementIjLi1EED2Ev @2993
    _ZN23ZCom_Replicate_MovementIjLi2EE10onDataLostEjjP14ZCom_BitStream @2994
    _ZN23ZCom_Replicate_MovementIjLi2EE11onDataAckedEjjP14ZCom_BitStream @2995
    _ZN23ZCom_Replicate_MovementIjLi2EE11updateInputEPjP14ZCom_BitStream @2996
    _ZN23ZCom_Replicate_MovementIjLi2EE11updateStateEPjPfS2_b @2997
    _ZN23ZCom_Replicate_MovementIjLi2EE12setTimeScaleEf @2998
    _ZN23ZCom_Replicate_MovementIjLi2EE13clearPeekDataEv @2999
    _ZN23ZCom_Replicate_MovementIjLi2EE13onPreSendDataEj14eZCom_NodeRolePj @3000
    _ZN23ZCom_Replicate_MovementIjLi2EE13overrideStateEPjPfS2_i @3001
    _ZN23ZCom_Replicate_MovementIjLi2EE14getSplinePointEfPj @3002
    _ZN23ZCom_Replicate_MovementIjLi2EE14onDataReceivedEj14eZCom_NodeRoleR14ZCom_BitStreambj @3003
    _ZN23ZCom_Replicate_MovementIjLi2EE15getAccelerationEPf @3004
    _ZN23ZCom_Replicate_MovementIjLi2EE16onPacketReceivedEj @3005
    _ZN23ZCom_Replicate_MovementIjLi2EE17onConnectionAddedEj14eZCom_NodeRole @3006
    _ZN23ZCom_Replicate_MovementIjLi2EE17setUpdateListenerEP23ZCom_MoveUpdateListenerIjE @3007
    _ZN23ZCom_Replicate_MovementIjLi2EE18onLocalRoleChangedE14eZCom_NodeRoleS1_ @3008
    _ZN23ZCom_Replicate_MovementIjLi2EE19onConnectionRemovedEj14eZCom_NodeRole @3009
    _ZN23ZCom_Replicate_MovementIjLi2EE19onRemoteRoleChangedEj14eZCom_NodeRoleS1_ @3010
    _ZN23ZCom_Replicate_MovementIjLi2EE21getSplineControlPointEjPj @3011
    _ZN23ZCom_Replicate_MovementIjLi2EE23getExtrapolatedPositionEiPj @3012
    _ZN23ZCom_Replicate_MovementIjLi2EE23getExtrapolatedVelocityEiPf @3013
    _ZN23ZCom_Replicate_MovementIjLi2EE23getLastReceivedPositionEPj @3014
    _ZN23ZCom_Replicate_MovementIjLi2EE23getLastReceivedVelocityEPf @3015
    _ZN23ZCom_Replicate_MovementIjLi2EE24getNextInputHistoryEntryEPjPPv @3016
    _ZN23ZCom_Replicate_MovementIjLi2EE7ProcessE14eZCom_NodeRolej @3017
    _ZN23ZCom_Replicate_MovementIjLi2EE8peekDataEv @3018
    _ZN23ZCom_Replicate_MovementIjLi2EEC1EP19ZCom_RSetupMovementIjE @3019
    _ZN23ZCom_Replicate_MovementIjLi2EEC1Ehhhhss @3020
    _ZN23ZCom_Replicate_MovementIjLi2EEC2EP19ZCom_RSetupMovementIjE @3021
    _ZN23ZCom_Replicate_MovementIjLi2EEC2Ehhhhss @3022
    _ZN23ZCom_Replicate_MovementIjLi2EED0Ev @3023
    _ZN23ZCom_Replicate_MovementIjLi2EED1Ev @3024
    _ZN23ZCom_Replicate_MovementIjLi2EED2Ev @3025
    _ZN23ZCom_Replicate_MovementIjLi3EE10onDataLostEjjP14ZCom_BitStream @3026
    _ZN23ZCom_Replicate_MovementIjLi3EE11onDataAckedEjjP14ZCom_BitStream @3027
    _ZN23ZCom_Replicate_MovementIjLi3EE11updateInputEPjP14ZCom_BitStream @3028
    _ZN23ZCom_Replicate_MovementIjLi3EE11updateStateEPjPfS2_b @3029
    _ZN23ZCom_Replicate_MovementIjLi3EE12setTimeScaleEf @3030
    _ZN23ZCom_Replicate_MovementIjLi3EE13clearPeekDataEv @3031
    _ZN23ZCom_Replicate_MovementIjLi3EE13onPreSendDataEj14eZCom_NodeRolePj @3032
    _ZN23ZCom_Replicate_MovementIjLi3EE13overrideStateEPjPfS2_i @3033
    _ZN23ZCom_Replicate_MovementIjLi3EE14getSplinePointEfPj @3034
    _ZN23ZCom_Replicate_MovementIjLi3EE14onDataReceivedEj14eZCom_NodeRoleR14ZCom_BitStreambj @3035
    _ZN23ZCom_Replicate_MovementIjLi3EE15getAccelerationEPf @3036
    _ZN23ZCom_Replicate_MovementIjLi3EE16onPacketReceivedEj @3037
    _ZN23ZCom_Replicate_MovementIjLi3EE17onConnectionAddedEj14eZCom_NodeRole @3038
    _ZN23ZCom_Replicate_MovementIjLi3EE17setUpdateListenerEP23ZCom_MoveUpdateListenerIjE @3039
    _ZN23ZCom_Replicate_MovementIjLi3EE18onLocalRoleChangedE14eZCom_NodeRoleS1_ @3040
    _ZN23ZCom_Replicate_MovementIjLi3EE19onConnectionRemovedEj14eZCom_NodeRole @3041
    _ZN23ZCom_Replicate_MovementIjLi3EE19onRemoteRoleChangedEj14eZCom_NodeRoleS1_ @3042
    _ZN23ZCom_Replicate_MovementIjLi3EE21getSplineControlPointEjPj @3043
    _ZN23ZCom_Replicate_MovementIjLi3EE23getExtrapolatedPositionEiPj @3044
    _ZN23ZCom_Replicate_MovementIjLi3EE23getExtrapolatedVelocityEiPf @3045
    _ZN23ZCom_Replicate_MovementIjLi3EE23getLastReceivedPositionEPj @3046
    _ZN23ZCom_Replicate_MovementIjLi3EE23getLastReceivedVelocityEPf @3047
    _ZN23ZCom_Replicate_MovementIjLi3EE24getNextInputHistoryEntryEPjPPv @3048
    _ZN23ZCom_Replicate_MovementIjLi3EE7ProcessE14eZCom_NodeRolej @3049
    _ZN23ZCom_Replicate_MovementIjLi3EE8peekDataEv @3050
    _ZN23ZCom_Replicate_MovementIjLi3EEC1EP19ZCom_RSetupMovementIjE @3051
    _ZN23ZCom_Replicate_MovementIjLi3EEC1Ehhhhss @3052
    _ZN23ZCom_Replicate_MovementIjLi3EEC2EP19ZCom_RSetupMovementIjE @3053
    _ZN23ZCom_Replicate_MovementIjLi3EEC2Ehhhhss @3054
    _ZN23ZCom_Replicate_MovementIjLi3EED0Ev @3055
    _ZN23ZCom_Replicate_MovementIjLi3EED1Ev @3056
    _ZN23ZCom_Replicate_MovementIjLi3EED2Ev @3057
    _ZN23ZCom_Replicate_StringWp10checkStateEv @3058
    _ZN23ZCom_Replicate_StringWp10unpackDataEP14ZCom_BitStreambj @3059
    _ZN23ZCom_Replicate_StringWp13clearPeekDataEv @3060
    _ZN23ZCom_Replicate_StringWp7ProcessE14eZCom_NodeRolej @3061
    _ZN23ZCom_Replicate_StringWp8packDataEP14ZCom_BitStream @3062
    _ZN23ZCom_Replicate_StringWp8peekDataEv @3063
    _ZN23ZCom_Replicate_StringWpC1EPwP17ZCom_RSetupString @3064
    _ZN23ZCom_Replicate_StringWpC1EPwthhhss @3065
    _ZN23ZCom_Replicate_StringWpC2EPwP17ZCom_RSetupString @3066
    _ZN23ZCom_Replicate_StringWpC2EPwthhhss @3067
    _ZN23ZCom_Replicate_StringWpD0Ev @3068
    _ZN23ZCom_Replicate_StringWpD1Ev @3069
    _ZN23ZCom_Replicate_StringWpD2Ev @3070
    _ZN23ZCom_ReplicatorAdvanced14sendDataDirectE14eZCom_SendModejP14ZCom_BitStreamj @3071
    _ZN23ZCom_ReplicatorAdvanced17getLastUpdateTimeEj @3072
    _ZN23ZCom_ReplicatorAdvanced7setNodeEP9ZCom_Node @3073
    _ZN23ZCom_ReplicatorAdvanced8sendDataE14eZCom_SendModeP14ZCom_BitStreamj @3074
    _ZN23ZCom_ReplicatorAdvancedC1EP20ZCom_ReplicatorSetup @3075
    _ZN23ZCom_ReplicatorAdvancedC2EP20ZCom_ReplicatorSetup @3076
    _ZN23ZCom_ReplicatorAdvancedD0Ev @3077
    _ZN23ZCom_ReplicatorAdvancedD1Ev @3078
    _ZN7ZoidCom11setLogLevelEh @3079
    _ZN7ZoidCom16setResendTimeoutEj @3080
    _ZN7ZoidCom20setConnectionTimeoutEj @3081
    _ZN7ZoidCom22overrideMemoryHandlersEPFPvjEPFvS0_E @3082
    _ZN7ZoidCom4InitEv @3083
    _ZN7ZoidCom5ClearEv @3084
    _ZN7ZoidCom5SleepEj @3085
    _ZN7ZoidCom7getTimeEv @3086
    _ZN7ZoidComC1EPFvPKcE @3087
    _ZN7ZoidComC1EPKc @3088
    _ZN7ZoidComC1Ev @3089
    _ZN7ZoidComC2EPFvPKcE @3090
    _ZN7ZoidComC2EPKc @3091
    _ZN7ZoidComC2Ev @3092
    _ZN7ZoidComD1Ev @3093
    _ZN7ZoidComD2Ev @3094
    _ZN9ZCom_Node10acceptFileEjjPKcb @3095
    _ZN9ZCom_Node10setPrivateEb @3096
    _ZN9ZCom_Node11setMustSyncEbt @3097
    _ZN9ZCom_Node11setUserDataEPv @3098
    _ZN9ZCom_Node11setUserDataEjPv @3099
    _ZN9ZCom_Node12getNextEventEP11eZCom_EventP14eZCom_NodeRolePjS4_ @3100
    _ZN9ZCom_Node13addReplicatorEP15ZCom_Replicatorb @3101
    _ZN9ZCom_Node13disconnectAllEv @3102
    _ZN9ZCom_Node13setSyncResultEjbP14ZCom_BitStream @3103
    _ZN9ZCom_Node14setInterceptIDEh @3104
    _ZN9ZCom_Node14unregisterNodeEv @3105
    _ZN9ZCom_Node15sendEventDirectE14eZCom_SendModeP14ZCom_BitStreamj @3106
    _ZN9ZCom_Node15setAnnounceDataEP14ZCom_BitStream @3107
    _ZN9ZCom_Node16sendEventToGroupE14eZCom_SendModeP14ZCom_BitStreamj @3108
    _ZN9ZCom_Node17addReplicationIntEPihbhhss @3109
    _ZN9ZCom_Node17applyForZoidLevelEh @3110
    _ZN9ZCom_Node17registerNodeByTagEjj14eZCom_NodeRoleP12ZCom_Control @3111
    _ZN9ZCom_Node17setUpdatePriorityEt @3112
    _ZN9ZCom_Node18addReplicationBoolEPbhhss @3113
    _ZN9ZCom_Node18registerNodeUniqueEj14eZCom_NodeRoleP12ZCom_Control @3114
    _ZN9ZCom_Node19addInterpolationIntEPihbhhiS0_ssf @3115
    _ZN9ZCom_Node19addReplicationFloatEPfhhhss @3116
    _ZN9ZCom_Node19endReplicationSetupEv @3117
    _ZN9ZCom_Node19registerNodeDynamicEjP12ZCom_Control @3118
    _ZN9ZCom_Node19removeFromZoidLevelEh @3119
    _ZN9ZCom_Node19setDefaultRelevanceEf @3120
    _ZN9ZCom_Node19setEventInterceptorEP25ZCom_NodeEventInterceptor @3121
    _ZN9ZCom_Node20addReplicationStringEPcthhss @3122
    _ZN9ZCom_Node20setEventNotificationEbb @3123
    _ZN9ZCom_Node21addInterpolationFloatEPfhhhfS0_ssf @3124
    _ZN9ZCom_Node21addReplicationStringWEPwthhss @3125
    _ZN9ZCom_Node21beginReplicationSetupEt @3126
    _ZN9ZCom_Node21registerRequestedNodeEjP12ZCom_Control @3127
    _ZN9ZCom_Node24setSyncResultAutoSuccessEb @3128
    _ZN9ZCom_Node25setReplicationInterceptorEP31ZCom_NodeReplicationInterceptor @3129
    _ZN9ZCom_Node30setConnectionSpecificRelevanceEjf @3130
    _ZN9ZCom_Node8sendFileEPKcS1_jP14ZCom_BitStreamf @3131
    _ZN9ZCom_Node8setOwnerEjb @3132
    _ZN9ZCom_Node9dependsOnEPS_19eZCom_DependencyOpt @3133
    _ZN9ZCom_Node9sendEventE14eZCom_SendModehP14ZCom_BitStream @3134
    _ZN9ZCom_NodeC1Ev @3135
    _ZN9ZCom_NodeC2Ev @3136
    _ZN9ZCom_NodeD1Ev @3137
    _ZN9ZCom_NodeD2Ev @3138
    _ZNK12ZCom_Address12getAddressIPE24eZCom_GetIPAddressOption @3139
    _ZNK12ZCom_Address12getControlIDEv @3140
    _ZNK12ZCom_Address14computeHashKeyEj @3141
    _ZNK12ZCom_Address18getAddressHostnameEv @3142
    _ZNK12ZCom_Address5getIPEh @3143
    _ZNK12ZCom_Address5getIPEv @3144
    _ZNK12ZCom_Address7getPortEv @3145
    _ZNK12ZCom_Address7getTypeEv @3146
    _ZNK12ZCom_Address8toStringEv @3147
    _ZNK12ZCom_AddresseqERKS_ @3148
    _ZNK12ZCom_Control12ZCom_getNodeEj @3149
    _ZNK12ZCom_Control12ZCom_getPeerEj @3150
    _ZNK12ZCom_Control15ZCom_getClassIDEPKc @3151
    _ZNK12ZCom_Control16ZCom_getUserDataEj @3152
    _ZNK12ZCom_Control23ZCom_getConnectionStatsEj @3153
    _ZNK14ZCom_BitStream7isEqualERKS_ @3154
    _ZNK14ZCom_BitStream9DuplicateEv @3155
    _ZNK15ZCom_Replicator13getPeekStreamEv @3156
    _ZNK16ZCom_InterpolateIPfLi10EE7getSizeEv @3157
    _ZNK16ZCom_InterpolateIPfLi10EE9getRecValEh @3158
    _ZNK16ZCom_InterpolateIPfLi11EE7getSizeEv @3159
    _ZNK16ZCom_InterpolateIPfLi11EE9getRecValEh @3160
    _ZNK16ZCom_InterpolateIPfLi12EE7getSizeEv @3161
    _ZNK16ZCom_InterpolateIPfLi12EE9getRecValEh @3162
    _ZNK16ZCom_InterpolateIPfLi1EE7getSizeEv @3163
    _ZNK16ZCom_InterpolateIPfLi1EE9getRecValEh @3164
    _ZNK16ZCom_InterpolateIPfLi2EE7getSizeEv @3165
    _ZNK16ZCom_InterpolateIPfLi2EE9getRecValEh @3166
    _ZNK16ZCom_InterpolateIPfLi3EE7getSizeEv @3167
    _ZNK16ZCom_InterpolateIPfLi3EE9getRecValEh @3168
    _ZNK16ZCom_InterpolateIPfLi4EE7getSizeEv @3169
    _ZNK16ZCom_InterpolateIPfLi4EE9getRecValEh @3170
    _ZNK16ZCom_InterpolateIPfLi5EE7getSizeEv @3171
    _ZNK16ZCom_InterpolateIPfLi5EE9getRecValEh @3172
    _ZNK16ZCom_InterpolateIPfLi6EE7getSizeEv @3173
    _ZNK16ZCom_InterpolateIPfLi6EE9getRecValEh @3174
    _ZNK16ZCom_InterpolateIPfLi7EE7getSizeEv @3175
    _ZNK16ZCom_InterpolateIPfLi7EE9getRecValEh @3176
    _ZNK16ZCom_InterpolateIPfLi8EE7getSizeEv @3177
    _ZNK16ZCom_InterpolateIPfLi8EE9getRecValEh @3178
    _ZNK16ZCom_InterpolateIPfLi9EE7getSizeEv @3179
    _ZNK16ZCom_InterpolateIPfLi9EE9getRecValEh @3180
    _ZNK16ZCom_InterpolateIPiLi10EE7getSizeEv @3181
    _ZNK16ZCom_InterpolateIPiLi10EE9getRecValEh @3182
    _ZNK16ZCom_InterpolateIPiLi11EE7getSizeEv @3183
    _ZNK16ZCom_InterpolateIPiLi11EE9getRecValEh @3184
    _ZNK16ZCom_InterpolateIPiLi12EE7getSizeEv @3185
    _ZNK16ZCom_InterpolateIPiLi12EE9getRecValEh @3186
    _ZNK16ZCom_InterpolateIPiLi1EE7getSizeEv @3187
    _ZNK16ZCom_InterpolateIPiLi1EE9getRecValEh @3188
    _ZNK16ZCom_InterpolateIPiLi2EE7getSizeEv @3189
    _ZNK16ZCom_InterpolateIPiLi2EE9getRecValEh @3190
    _ZNK16ZCom_InterpolateIPiLi3EE7getSizeEv @3191
    _ZNK16ZCom_InterpolateIPiLi3EE9getRecValEh @3192
    _ZNK16ZCom_InterpolateIPiLi4EE7getSizeEv @3193
    _ZNK16ZCom_InterpolateIPiLi4EE9getRecValEh @3194
    _ZNK16ZCom_InterpolateIPiLi5EE7getSizeEv @3195
    _ZNK16ZCom_InterpolateIPiLi5EE9getRecValEh @3196
    _ZNK16ZCom_InterpolateIPiLi6EE7getSizeEv @3197
    _ZNK16ZCom_InterpolateIPiLi6EE9getRecValEh @3198
    _ZNK16ZCom_InterpolateIPiLi7EE7getSizeEv @3199
    _ZNK16ZCom_InterpolateIPiLi7EE9getRecValEh @3200
    _ZNK16ZCom_InterpolateIPiLi8EE7getSizeEv @3201
    _ZNK16ZCom_InterpolateIPiLi8EE9getRecValEh @3202
    _ZNK16ZCom_InterpolateIPiLi9EE7getSizeEv @3203
    _ZNK16ZCom_InterpolateIPiLi9EE9getRecValEh @3204
    _ZNK16ZCom_InterpolateIPjLi10EE7getSizeEv @3205
    _ZNK16ZCom_InterpolateIPjLi10EE9getRecValEh @3206
    _ZNK16ZCom_InterpolateIPjLi11EE7getSizeEv @3207
    _ZNK16ZCom_InterpolateIPjLi11EE9getRecValEh @3208
    _ZNK16ZCom_InterpolateIPjLi12EE7getSizeEv @3209
    _ZNK16ZCom_InterpolateIPjLi12EE9getRecValEh @3210
    _ZNK16ZCom_InterpolateIPjLi1EE7getSizeEv @3211
    _ZNK16ZCom_InterpolateIPjLi1EE9getRecValEh @3212
    _ZNK16ZCom_InterpolateIPjLi2EE7getSizeEv @3213
    _ZNK16ZCom_InterpolateIPjLi2EE9getRecValEh @3214
    _ZNK16ZCom_InterpolateIPjLi3EE7getSizeEv @3215
    _ZNK16ZCom_InterpolateIPjLi3EE9getRecValEh @3216
    _ZNK16ZCom_InterpolateIPjLi4EE7getSizeEv @3217
    _ZNK16ZCom_InterpolateIPjLi4EE9getRecValEh @3218
    _ZNK16ZCom_InterpolateIPjLi5EE7getSizeEv @3219
    _ZNK16ZCom_InterpolateIPjLi5EE9getRecValEh @3220
    _ZNK16ZCom_InterpolateIPjLi6EE7getSizeEv @3221
    _ZNK16ZCom_InterpolateIPjLi6EE9getRecValEh @3222
    _ZNK16ZCom_InterpolateIPjLi7EE7getSizeEv @3223
    _ZNK16ZCom_InterpolateIPjLi7EE9getRecValEh @3224
    _ZNK16ZCom_InterpolateIPjLi8EE7getSizeEv @3225
    _ZNK16ZCom_InterpolateIPjLi8EE9getRecValEh @3226
    _ZNK16ZCom_InterpolateIPjLi9EE7getSizeEv @3227
    _ZNK16ZCom_InterpolateIPjLi9EE9getRecValEh @3228
    _ZNK16ZCom_InterpolateIfLi10EE7getSizeEv @3229
    _ZNK16ZCom_InterpolateIfLi10EE9getRecValEh @3230
    _ZNK16ZCom_InterpolateIfLi11EE7getSizeEv @3231
    _ZNK16ZCom_InterpolateIfLi11EE9getRecValEh @3232
    _ZNK16ZCom_InterpolateIfLi12EE7getSizeEv @3233
    _ZNK16ZCom_InterpolateIfLi12EE9getRecValEh @3234
    _ZNK16ZCom_InterpolateIfLi1EE7getSizeEv @3235
    _ZNK16ZCom_InterpolateIfLi1EE9getRecValEh @3236
    _ZNK16ZCom_InterpolateIfLi2EE7getSizeEv @3237
    _ZNK16ZCom_InterpolateIfLi2EE9getRecValEh @3238
    _ZNK16ZCom_InterpolateIfLi3EE7getSizeEv @3239
    _ZNK16ZCom_InterpolateIfLi3EE9getRecValEh @3240
    _ZNK16ZCom_InterpolateIfLi4EE7getSizeEv @3241
    _ZNK16ZCom_InterpolateIfLi4EE9getRecValEh @3242
    _ZNK16ZCom_InterpolateIfLi5EE7getSizeEv @3243
    _ZNK16ZCom_InterpolateIfLi5EE9getRecValEh @3244
    _ZNK16ZCom_InterpolateIfLi6EE7getSizeEv @3245
    _ZNK16ZCom_InterpolateIfLi6EE9getRecValEh @3246
    _ZNK16ZCom_InterpolateIfLi7EE7getSizeEv @3247
    _ZNK16ZCom_InterpolateIfLi7EE9getRecValEh @3248
    _ZNK16ZCom_InterpolateIfLi8EE7getSizeEv @3249
    _ZNK16ZCom_InterpolateIfLi8EE9getRecValEh @3250
    _ZNK16ZCom_InterpolateIfLi9EE7getSizeEv @3251
    _ZNK16ZCom_InterpolateIfLi9EE9getRecValEh @3252
    _ZNK16ZCom_InterpolateIiLi10EE7getSizeEv @3253
    _ZNK16ZCom_InterpolateIiLi10EE9getRecValEh @3254
    _ZNK16ZCom_InterpolateIiLi11EE7getSizeEv @3255
    _ZNK16ZCom_InterpolateIiLi11EE9getRecValEh @3256
    _ZNK16ZCom_InterpolateIiLi12EE7getSizeEv @3257
    _ZNK16ZCom_InterpolateIiLi12EE9getRecValEh @3258
    _ZNK16ZCom_InterpolateIiLi1EE7getSizeEv @3259
    _ZNK16ZCom_InterpolateIiLi1EE9getRecValEh @3260
    _ZNK16ZCom_InterpolateIiLi2EE7getSizeEv @3261
    _ZNK16ZCom_InterpolateIiLi2EE9getRecValEh @3262
    _ZNK16ZCom_InterpolateIiLi3EE7getSizeEv @3263
    _ZNK16ZCom_InterpolateIiLi3EE9getRecValEh @3264
    _ZNK16ZCom_InterpolateIiLi4EE7getSizeEv @3265
    _ZNK16ZCom_InterpolateIiLi4EE9getRecValEh @3266
    _ZNK16ZCom_InterpolateIiLi5EE7getSizeEv @3267
    _ZNK16ZCom_InterpolateIiLi5EE9getRecValEh @3268
    _ZNK16ZCom_InterpolateIiLi6EE7getSizeEv @3269
    _ZNK16ZCom_InterpolateIiLi6EE9getRecValEh @3270
    _ZNK16ZCom_InterpolateIiLi7EE7getSizeEv @3271
    _ZNK16ZCom_InterpolateIiLi7EE9getRecValEh @3272
    _ZNK16ZCom_InterpolateIiLi8EE7getSizeEv @3273
    _ZNK16ZCom_InterpolateIiLi8EE9getRecValEh @3274
    _ZNK16ZCom_InterpolateIiLi9EE7getSizeEv @3275
    _ZNK16ZCom_InterpolateIiLi9EE9getRecValEh @3276
    _ZNK16ZCom_InterpolateIjLi10EE7getSizeEv @3277
    _ZNK16ZCom_InterpolateIjLi10EE9getRecValEh @3278
    _ZNK16ZCom_InterpolateIjLi11EE7getSizeEv @3279
    _ZNK16ZCom_InterpolateIjLi11EE9getRecValEh @3280
    _ZNK16ZCom_InterpolateIjLi12EE7getSizeEv @3281
    _ZNK16ZCom_InterpolateIjLi12EE9getRecValEh @3282
    _ZNK16ZCom_InterpolateIjLi1EE7getSizeEv @3283
    _ZNK16ZCom_InterpolateIjLi1EE9getRecValEh @3284
    _ZNK16ZCom_InterpolateIjLi2EE7getSizeEv @3285
    _ZNK16ZCom_InterpolateIjLi2EE9getRecValEh @3286
    _ZNK16ZCom_InterpolateIjLi3EE7getSizeEv @3287
    _ZNK16ZCom_InterpolateIjLi3EE9getRecValEh @3288
    _ZNK16ZCom_InterpolateIjLi4EE7getSizeEv @3289
    _ZNK16ZCom_InterpolateIjLi4EE9getRecValEh @3290
    _ZNK16ZCom_InterpolateIjLi5EE7getSizeEv @3291
    _ZNK16ZCom_InterpolateIjLi5EE9getRecValEh @3292
    _ZNK16ZCom_InterpolateIjLi6EE7getSizeEv @3293
    _ZNK16ZCom_InterpolateIjLi6EE9getRecValEh @3294
    _ZNK16ZCom_InterpolateIjLi7EE7getSizeEv @3295
    _ZNK16ZCom_InterpolateIjLi7EE9getRecValEh @3296
    _ZNK16ZCom_InterpolateIjLi8EE7getSizeEv @3297
    _ZNK16ZCom_InterpolateIjLi8EE9getRecValEh @3298
    _ZNK16ZCom_InterpolateIjLi9EE7getSizeEv @3299
    _ZNK16ZCom_InterpolateIjLi9EE9getRecValEh @3300
    _ZNK18ZCom_RSetupNumeric15getRelevantBitsEv @3301
    _ZNK22ZCom_Replicate_NumericIPfLi10EE7getSizeEv @3302
    _ZNK22ZCom_Replicate_NumericIPfLi11EE7getSizeEv @3303
    _ZNK22ZCom_Replicate_NumericIPfLi12EE7getSizeEv @3304
    _ZNK22ZCom_Replicate_NumericIPfLi1EE7getSizeEv @3305
    _ZNK22ZCom_Replicate_NumericIPfLi2EE7getSizeEv @3306
    _ZNK22ZCom_Replicate_NumericIPfLi3EE7getSizeEv @3307
    _ZNK22ZCom_Replicate_NumericIPfLi4EE7getSizeEv @3308
    _ZNK22ZCom_Replicate_NumericIPfLi5EE7getSizeEv @3309
    _ZNK22ZCom_Replicate_NumericIPfLi6EE7getSizeEv @3310
    _ZNK22ZCom_Replicate_NumericIPfLi7EE7getSizeEv @3311
    _ZNK22ZCom_Replicate_NumericIPfLi8EE7getSizeEv @3312
    _ZNK22ZCom_Replicate_NumericIPfLi9EE7getSizeEv @3313
    _ZNK22ZCom_Replicate_NumericIPiLi10EE7getSizeEv @3314
    _ZNK22ZCom_Replicate_NumericIPiLi11EE7getSizeEv @3315
    _ZNK22ZCom_Replicate_NumericIPiLi12EE7getSizeEv @3316
    _ZNK22ZCom_Replicate_NumericIPiLi1EE7getSizeEv @3317
    _ZNK22ZCom_Replicate_NumericIPiLi2EE7getSizeEv @3318
    _ZNK22ZCom_Replicate_NumericIPiLi3EE7getSizeEv @3319
    _ZNK22ZCom_Replicate_NumericIPiLi4EE7getSizeEv @3320
    _ZNK22ZCom_Replicate_NumericIPiLi5EE7getSizeEv @3321
    _ZNK22ZCom_Replicate_NumericIPiLi6EE7getSizeEv @3322
    _ZNK22ZCom_Replicate_NumericIPiLi7EE7getSizeEv @3323
    _ZNK22ZCom_Replicate_NumericIPiLi8EE7getSizeEv @3324
    _ZNK22ZCom_Replicate_NumericIPiLi9EE7getSizeEv @3325
    _ZNK22ZCom_Replicate_NumericIPjLi10EE7getSizeEv @3326
    _ZNK22ZCom_Replicate_NumericIPjLi11EE7getSizeEv @3327
    _ZNK22ZCom_Replicate_NumericIPjLi12EE7getSizeEv @3328
    _ZNK22ZCom_Replicate_NumericIPjLi1EE7getSizeEv @3329
    _ZNK22ZCom_Replicate_NumericIPjLi2EE7getSizeEv @3330
    _ZNK22ZCom_Replicate_NumericIPjLi3EE7getSizeEv @3331
    _ZNK22ZCom_Replicate_NumericIPjLi4EE7getSizeEv @3332
    _ZNK22ZCom_Replicate_NumericIPjLi5EE7getSizeEv @3333
    _ZNK22ZCom_Replicate_NumericIPjLi6EE7getSizeEv @3334
    _ZNK22ZCom_Replicate_NumericIPjLi7EE7getSizeEv @3335
    _ZNK22ZCom_Replicate_NumericIPjLi8EE7getSizeEv @3336
    _ZNK22ZCom_Replicate_NumericIPjLi9EE7getSizeEv @3337
    _ZNK22ZCom_Replicate_NumericIfLi10EE7getSizeEv @3338
    _ZNK22ZCom_Replicate_NumericIfLi11EE7getSizeEv @3339
    _ZNK22ZCom_Replicate_NumericIfLi12EE7getSizeEv @3340
    _ZNK22ZCom_Replicate_NumericIfLi1EE7getSizeEv @3341
    _ZNK22ZCom_Replicate_NumericIfLi2EE7getSizeEv @3342
    _ZNK22ZCom_Replicate_NumericIfLi3EE7getSizeEv @3343
    _ZNK22ZCom_Replicate_NumericIfLi4EE7getSizeEv @3344
    _ZNK22ZCom_Replicate_NumericIfLi5EE7getSizeEv @3345
    _ZNK22ZCom_Replicate_NumericIfLi6EE7getSizeEv @3346
    _ZNK22ZCom_Replicate_NumericIfLi7EE7getSizeEv @3347
    _ZNK22ZCom_Replicate_NumericIfLi8EE7getSizeEv @3348
    _ZNK22ZCom_Replicate_NumericIfLi9EE7getSizeEv @3349
    _ZNK22ZCom_Replicate_NumericIiLi10EE7getSizeEv @3350
    _ZNK22ZCom_Replicate_NumericIiLi11EE7getSizeEv @3351
    _ZNK22ZCom_Replicate_NumericIiLi12EE7getSizeEv @3352
    _ZNK22ZCom_Replicate_NumericIiLi1EE7getSizeEv @3353
    _ZNK22ZCom_Replicate_NumericIiLi2EE7getSizeEv @3354
    _ZNK22ZCom_Replicate_NumericIiLi3EE7getSizeEv @3355
    _ZNK22ZCom_Replicate_NumericIiLi4EE7getSizeEv @3356
    _ZNK22ZCom_Replicate_NumericIiLi5EE7getSizeEv @3357
    _ZNK22ZCom_Replicate_NumericIiLi6EE7getSizeEv @3358
    _ZNK22ZCom_Replicate_NumericIiLi7EE7getSizeEv @3359
    _ZNK22ZCom_Replicate_NumericIiLi8EE7getSizeEv @3360
    _ZNK22ZCom_Replicate_NumericIiLi9EE7getSizeEv @3361
    _ZNK22ZCom_Replicate_NumericIjLi10EE7getSizeEv @3362
    _ZNK22ZCom_Replicate_NumericIjLi11EE7getSizeEv @3363
    _ZNK22ZCom_Replicate_NumericIjLi12EE7getSizeEv @3364
    _ZNK22ZCom_Replicate_NumericIjLi1EE7getSizeEv @3365
    _ZNK22ZCom_Replicate_NumericIjLi2EE7getSizeEv @3366
    _ZNK22ZCom_Replicate_NumericIjLi3EE7getSizeEv @3367
    _ZNK22ZCom_Replicate_NumericIjLi4EE7getSizeEv @3368
    _ZNK22ZCom_Replicate_NumericIjLi5EE7getSizeEv @3369
    _ZNK22ZCom_Replicate_NumericIjLi6EE7getSizeEv @3370
    _ZNK22ZCom_Replicate_NumericIjLi7EE7getSizeEv @3371
    _ZNK22ZCom_Replicate_NumericIjLi8EE7getSizeEv @3372
    _ZNK22ZCom_Replicate_NumericIjLi9EE7getSizeEv @3373
    _ZNK23ZCom_ReplicatorAdvanced7getNodeEv @3374
    _ZNK9ZCom_Node10getClassIDEv @3375
    _ZNK9ZCom_Node10getControlEv @3376
    _ZNK9ZCom_Node11getFileInfoEjj @3377
    _ZNK9ZCom_Node11getUserDataEj @3378
    _ZNK9ZCom_Node11getUserDataEv @3379
    _ZNK9ZCom_Node12getNetworkIDEv @3380
    _ZNK9ZCom_Node12getZoidLevelEj @3381
    _ZNK9ZCom_Node14getUpdateDeltaEv @3382
    _ZNK9ZCom_Node17checkEventWaitingEv @3383
    _ZNK9ZCom_Node17getZoidLevelCountEv @3384
    _ZNK9ZCom_Node20getCurrentUpdateRateEv @3385
    _ZNK9ZCom_Node22getRelevantConnectionsEPjjS0_ @3386
    _ZNK9ZCom_Node26getRelevantConnectionCountEv @3387
    _ZNK9ZCom_Node35getEstimatedTimeUntilPossibleUpdateEv @3388
    _ZNK9ZCom_Node7getRoleEv @3389
    _ZNK9ZCom_Node9isPrivateEv @3390
    _ZTV12ZCom_Control @3391 DATA
    _ZTV15ZCom_Replicator @3392 DATA
    _ZTV17ZCom_RSetupString @3393 DATA
    _ZTV18ZCom_RSetupNumeric @3394 DATA
    _ZTV19ZCom_Replicate_Bool @3395 DATA
    _ZTV20ZCom_Replicate_Boolp @3396 DATA
    _ZTV20ZCom_ReplicatorBasic @3397 DATA
    _ZTV20ZCom_ReplicatorSetup @3398 DATA
    _ZTV22ZCom_Replicate_Stringp @3399 DATA
    _ZTV23ZCom_Replicate_StringWp @3400 DATA
    _ZTV23ZCom_ReplicatorAdvanced @3401 DATA
